  1020a2:	e8 c9 22 00 00       	callq  104370 <enable_paging>
  1020a7:	48 8b 05 aa 61 00 00 	mov    0x61aa(%rip),%rax        # 108258 <gop>
  1020ae:	41 b8 ff 00 00 ff    	mov    $0xff0000ff,%r8d
  1020b4:	b9 64 00 00 00       	mov    $0x64,%ecx
  1020b9:	ba 64 00 00 00       	mov    $0x64,%edx
  1020be:	be 2b 5c 10 00       	mov    $0x105c2b,%esi
  1020c3:	48 89 c7             	mov    %rax,%rdi
  1020c6:	e8 f3 16 00 00       	callq  1037be <draw_string>
  1020cb:	e8 58 fc ff ff       	callq  101d28 <__cli>
  1020d0:	e8 5a fc ff ff       	callq  101d2f <__hlt>
  1020d5:	c9                   	leaveq 
  1020d6:	c3                   	retq   

00000000001020d7 <map_page>:
  1020d7:	55                   	push   %rbp
  1020d8:	48 89 e5             	mov    %rsp,%rbp
  1020db:	53                   	push   %rbx
  1020dc:	48 83 ec 78          	sub    $0x78,%rsp
  1020e0:	48 89 7d 98          	mov    %rdi,-0x68(%rbp)
  1020e4:	48 89 75 90          	mov    %rsi,-0x70(%rbp)
  1020e8:	48 89 55 88          	mov    %rdx,-0x78(%rbp)
  1020ec:	48 8b 45 98          	mov    -0x68(%rbp),%rax
  1020f0:	48 89 45 d0          	mov    %rax,-0x30(%rbp)
  1020f4:	48 8b 45 90          	mov    -0x70(%rbp),%rax
  1020f8:	48 89 45 c8          	mov    %rax,-0x38(%rbp)
  1020fc:	48 8b 45 d0          	mov    -0x30(%rbp),%rax
  102100:	48 89 c7             	mov    %rax,%rdi
  102103:	e8 ed fc ff ff       	callq  101df5 <get_pml4_index>
  102108:	48 89 45 c0          	mov    %rax,-0x40(%rbp)
  10210c:	48 8b 45 d0          	mov    -0x30(%rbp),%rax
  102110:	48 89 c7             	mov    %rax,%rdi
  102113:	e8 f4 fc ff ff       	callq  101e0c <get_pdpt_index>
  102118:	48 89 45 b8          	mov    %rax,-0x48(%rbp)
  10211c:	48 8b 45 d0          	mov    -0x30(%rbp),%rax
  102120:	48 89 c7             	mov    %rax,%rdi
  102123:	e8 fb fc ff ff       	callq  101e23 <get_pd_index>
  102128:	48 89 45 b0          	mov    %rax,-0x50(%rbp)
  10212c:	48 8b 45 d0          	mov    -0x30(%rbp),%rax
  102130:	48 89 c7             	mov    %rax,%rdi
  102133:	e8 02 fd ff ff       	callq  101e3a <get_pt_index>
  102138:	48 89 45 a8          	mov    %rax,-0x58(%rbp)
  10213c:	48 8b 05 dd 4f 00 00 	mov    0x4fdd(%rip),%rax        # 107120 <pml4>
  102143:	48 8b 55 c0          	mov    -0x40(%rbp),%rdx
  102147:	48 c1 e2 03          	shl    $0x3,%rdx
  10214b:	48 01 d0             	add    %rdx,%rax
  10214e:	48 8b 00             	mov    (%rax),%rax
  102151:	83 e0 01             	and    $0x1,%eax
  102154:	48 85 c0             	test   %rax,%rax
  102157:	75 33                	jne    10218c <map_page+0xb5>
  102159:	e8 ee fb ff ff       	callq  101d4c <allocate_page_table>
  10215e:	48 89 45 e8          	mov    %rax,-0x18(%rbp)
  102162:	48 83 7d e8 00       	cmpq   $0x0,-0x18(%rbp)
  102167:	0f 84 46 01 00 00    	je     1022b3 <map_page+0x1dc>
  10216d:	48 8b 05 ac 4f 00 00 	mov    0x4fac(%rip),%rax        # 107120 <pml4>
  102174:	48 8b 55 c0          	mov    -0x40(%rbp),%rdx
  102178:	48 c1 e2 03          	shl    $0x3,%rdx
  10217c:	48 01 d0             	add    %rdx,%rax
  10217f:	48 8b 55 e8          	mov    -0x18(%rbp),%rdx
  102183:	48 83 ca 07          	or     $0x7,%rdx
  102187:	48 89 10             	mov    %rdx,(%rax)
  10218a:	eb 1f                	jmp    1021ab <map_page+0xd4>
  10218c:	48 8b 05 8d 4f 00 00 	mov    0x4f8d(%rip),%rax        # 107120 <pml4>
  102193:	48 8b 55 c0          	mov    -0x40(%rbp),%rdx
  102197:	48 c1 e2 03          	shl    $0x3,%rdx
  10219b:	48 01 d0             	add    %rdx,%rax
  10219e:	48 8b 00             	mov    (%rax),%rax
  1021a1:	48 25 00 f0 ff ff    	and    $0xfffffffffffff000,%rax
  1021a7:	48 89 45 e8          	mov    %rax,-0x18(%rbp)
  1021ab:	48 8b 45 b8          	mov    -0x48(%rbp),%rax
  1021af:	48 c1 e0 03          	shl    $0x3,%rax
  1021b3:	48 03 45 e8          	add    -0x18(%rbp),%rax
  1021b7:	48 8b 00             	mov    (%rax),%rax
  1021ba:	83 e0 01             	and    $0x1,%eax
  1021bd:	48 85 c0             	test   %rax,%rax
  1021c0:	75 2d                	jne    1021ef <map_page+0x118>
  1021c2:	e8 85 fb ff ff       	callq  101d4c <allocate_page_table>
  1021c7:	48 89 45 e0          	mov    %rax,-0x20(%rbp)
  1021cb:	48 83 7d e0 00       	cmpq   $0x0,-0x20(%rbp)
  1021d0:	0f 84 e0 00 00 00    	je     1022b6 <map_page+0x1df>
  1021d6:	48 8b 45 b8          	mov    -0x48(%rbp),%rax
  1021da:	48 c1 e0 03          	shl    $0x3,%rax
  1021de:	48 03 45 e8          	add    -0x18(%rbp),%rax
  1021e2:	48 8b 55 e0          	mov    -0x20(%rbp),%rdx
  1021e6:	48 83 ca 07          	or     $0x7,%rdx
  1021ea:	48 89 10             	mov    %rdx,(%rax)
  1021ed:	eb 19                	jmp    102208 <map_page+0x131>
  1021ef:	48 8b 45 b8          	mov    -0x48(%rbp),%rax
  1021f3:	48 c1 e0 03          	shl    $0x3,%rax
  1021f7:	48 03 45 e8          	add    -0x18(%rbp),%rax
  1021fb:	48 8b 00             	mov    (%rax),%rax
  1021fe:	48 25 00 f0 ff ff    	and    $0xfffffffffffff000,%rax
  102204:	48 89 45 e0          	mov    %rax,-0x20(%rbp)
  102208:	48 8b 45 b0          	mov    -0x50(%rbp),%rax
  10220c:	48 c1 e0 03          	shl    $0x3,%rax
  102210:	48 03 45 e0          	add    -0x20(%rbp),%rax
  102214:	48 8b 00             	mov    (%rax),%rax
  102217:	83 e0 01             	and    $0x1,%eax
  10221a:	48 85 c0             	test   %rax,%rax
  10221d:	75 2d                	jne    10224c <map_page+0x175>
  10221f:	e8 28 fb ff ff       	callq  101d4c <allocate_page_table>
  102224:	48 89 45 d8          	mov    %rax,-0x28(%rbp)
  102228:	48 83 7d d8 00       	cmpq   $0x0,-0x28(%rbp)
  10222d:	0f 84 86 00 00 00    	je     1022b9 <map_page+0x1e2>
  102233:	48 8b 45 b0          	mov    -0x50(%rbp),%rax
  102237:	48 c1 e0 03          	shl    $0x3,%rax
  10223b:	48 03 45 e0          	add    -0x20(%rbp),%rax
  10223f:	48 8b 55 d8          	mov    -0x28(%rbp),%rdx
  102243:	48 83 ca 07          	or     $0x7,%rdx
  102247:	48 89 10             	mov    %rdx,(%rax)
  10224a:	eb 19                	jmp    102265 <map_page+0x18e>
  10224c:	48 8b 45 b0          	mov    -0x50(%rbp),%rax
  102250:	48 c1 e0 03          	shl    $0x3,%rax
  102254:	48 03 45 e0          	add    -0x20(%rbp),%rax
  102258:	48 8b 00             	mov    (%rax),%rax
  10225b:	48 25 00 f0 ff ff    	and    $0xfffffffffffff000,%rax
  102261:	48 89 45 d8          	mov    %rax,-0x28(%rbp)
  102265:	48 8b 45 a8          	mov    -0x58(%rbp),%rax
  102269:	48 c1 e0 03          	shl    $0x3,%rax
  10226d:	48 03 45 d8          	add    -0x28(%rbp),%rax
  102271:	48 8b 55 c8          	mov    -0x38(%rbp),%rdx
  102275:	48 89 d1             	mov    %rdx,%rcx
  102278:	48 81 e1 00 f0 ff ff 	and    $0xfffffffffffff000,%rcx
  10227f:	48 8b 55 88          	mov    -0x78(%rbp),%rdx
  102283:	83 e2 06             	and    $0x6,%edx
  102286:	48 09 ca             	or     %rcx,%rdx
  102289:	48 83 ca 01          	or     $0x1,%rdx
  10228d:	48 89 10             	mov    %rdx,(%rax)
  102290:	0f 20 c3             	mov    %cr0,%rbx
  102293:	48 89 5d a0          	mov    %rbx,-0x60(%rbp)
  102297:	48 8b 45 a0          	mov    -0x60(%rbp),%rax
  10229b:	25 00 00 00 80       	and    $0x80000000,%eax
  1022a0:	48 85 c0             	test   %rax,%rax
  1022a3:	74 15                	je     1022ba <map_page+0x1e3>
  1022a5:	48 8b 45 d0          	mov    -0x30(%rbp),%rax
  1022a9:	48 89 c7             	mov    %rax,%rdi
  1022ac:	e8 85 fa ff ff       	callq  101d36 <invlpg>
  1022b1:	eb 07                	jmp    1022ba <map_page+0x1e3>
  1022b3:	90                   	nop
  1022b4:	eb 04                	jmp    1022ba <map_page+0x1e3>
  1022b6:	90                   	nop
  1022b7:	eb 01                	jmp    1022ba <map_page+0x1e3>
  1022b9:	90                   	nop
  1022ba:	48 83 c4 78          	add    $0x78,%rsp
  1022be:	5b                   	pop    %rbx
  1022bf:	5d                   	pop    %rbp
  1022c0:	c3                   	retq   

00000000001022c1 <unmap_page>:
  1022c1:	55                   	push   %rbp
  1022c2:	48 89 e5             	mov    %rsp,%rbp
  1022c5:	53                   	push   %rbx
  1022c6:	48 83 ec 68          	sub    $0x68,%rsp
  1022ca:	48 89 7d 98          	mov    %rdi,-0x68(%rbp)
  1022ce:	48 8b 45 98          	mov    -0x68(%rbp),%rax
  1022d2:	48 89 45 e8          	mov    %rax,-0x18(%rbp)
  1022d6:	48 8b 45 e8          	mov    -0x18(%rbp),%rax
  1022da:	48 89 c7             	mov    %rax,%rdi
  1022dd:	e8 13 fb ff ff       	callq  101df5 <get_pml4_index>
  1022e2:	48 89 45 e0          	mov    %rax,-0x20(%rbp)
  1022e6:	48 8b 45 e8          	mov    -0x18(%rbp),%rax
  1022ea:	48 89 c7             	mov    %rax,%rdi
  1022ed:	e8 1a fb ff ff       	callq  101e0c <get_pdpt_index>
  1022f2:	48 89 45 d8          	mov    %rax,-0x28(%rbp)
  1022f6:	48 8b 45 e8          	mov    -0x18(%rbp),%rax
  1022fa:	48 89 c7             	mov    %rax,%rdi
  1022fd:	e8 21 fb ff ff       	callq  101e23 <get_pd_index>
  102302:	48 89 45 d0          	mov    %rax,-0x30(%rbp)
  102306:	48 8b 45 e8          	mov    -0x18(%rbp),%rax
  10230a:	48 89 c7             	mov    %rax,%rdi
  10230d:	e8 28 fb ff ff       	callq  101e3a <get_pt_index>
  102312:	48 89 45 c8          	mov    %rax,-0x38(%rbp)
  102316:	48 8b 05 03 4e 00 00 	mov    0x4e03(%rip),%rax        # 107120 <pml4>
  10231d:	48 8b 55 e0          	mov    -0x20(%rbp),%rdx
  102321:	48 c1 e2 03          	shl    $0x3,%rdx
  102325:	48 01 d0             	add    %rdx,%rax
  102328:	48 8b 00             	mov    (%rax),%rax
  10232b:	83 e0 01             	and    $0x1,%eax
  10232e:	48 85 c0             	test   %rax,%rax
  102331:	75 0a                	jne    10233d <unmap_page+0x7c>
  102333:	b8 00 00 00 00       	mov    $0x0,%eax
  102338:	e9 0f 01 00 00       	jmpq   10244c <unmap_page+0x18b>
  10233d:	48 8b 05 dc 4d 00 00 	mov    0x4ddc(%rip),%rax        # 107120 <pml4>
  102344:	48 8b 55 e0          	mov    -0x20(%rbp),%rdx
  102348:	48 c1 e2 03          	shl    $0x3,%rdx
  10234c:	48 01 d0             	add    %rdx,%rax
  10234f:	48 8b 00             	mov    (%rax),%rax
  102352:	48 25 00 f0 ff ff    	and    $0xfffffffffffff000,%rax
  102358:	48 89 45 c0          	mov    %rax,-0x40(%rbp)
  10235c:	48 8b 45 d8          	mov    -0x28(%rbp),%rax
  102360:	48 c1 e0 03          	shl    $0x3,%rax
  102364:	48 03 45 c0          	add    -0x40(%rbp),%rax
  102368:	48 8b 00             	mov    (%rax),%rax
  10236b:	83 e0 01             	and    $0x1,%eax
  10236e:	48 85 c0             	test   %rax,%rax
  102371:	75 0a                	jne    10237d <unmap_page+0xbc>
  102373:	b8 00 00 00 00       	mov    $0x0,%eax
  102378:	e9 cf 00 00 00       	jmpq   10244c <unmap_page+0x18b>
  10237d:	48 8b 45 d8          	mov    -0x28(%rbp),%rax
  102381:	48 c1 e0 03          	shl    $0x3,%rax
  102385:	48 03 45 c0          	add    -0x40(%rbp),%rax
  102389:	48 8b 00             	mov    (%rax),%rax
  10238c:	48 25 00 f0 ff ff    	and    $0xfffffffffffff000,%rax
  102392:	48 89 45 b8          	mov    %rax,-0x48(%rbp)
  102396:	48 8b 45 d0          	mov    -0x30(%rbp),%rax
  10239a:	48 c1 e0 03          	shl    $0x3,%rax
  10239e:	48 03 45 b8          	add    -0x48(%rbp),%rax
  1023a2:	48 8b 00             	mov    (%rax),%rax
  1023a5:	83 e0 01             	and    $0x1,%eax
  1023a8:	48 85 c0             	test   %rax,%rax
  1023ab:	75 0a                	jne    1023b7 <unmap_page+0xf6>
  1023ad:	b8 00 00 00 00       	mov    $0x0,%eax
  1023b2:	e9 95 00 00 00       	jmpq   10244c <unmap_page+0x18b>
  1023b7:	48 8b 45 d0          	mov    -0x30(%rbp),%rax
  1023bb:	48 c1 e0 03          	shl    $0x3,%rax
  1023bf:	48 03 45 b8          	add    -0x48(%rbp),%rax
  1023c3:	48 8b 00             	mov    (%rax),%rax
  1023c6:	48 25 00 f0 ff ff    	and    $0xfffffffffffff000,%rax
  1023cc:	48 89 45 b0          	mov    %rax,-0x50(%rbp)
  1023d0:	48 8b 45 c8          	mov    -0x38(%rbp),%rax
  1023d4:	48 c1 e0 03          	shl    $0x3,%rax
  1023d8:	48 03 45 b0          	add    -0x50(%rbp),%rax
  1023dc:	48 8b 00             	mov    (%rax),%rax
  1023df:	83 e0 01             	and    $0x1,%eax
  1023e2:	48 85 c0             	test   %rax,%rax
  1023e5:	75 07                	jne    1023ee <unmap_page+0x12d>
  1023e7:	b8 00 00 00 00       	mov    $0x0,%eax
  1023ec:	eb 5e                	jmp    10244c <unmap_page+0x18b>
  1023ee:	48 8b 45 c8          	mov    -0x38(%rbp),%rax
  1023f2:	48 c1 e0 03          	shl    $0x3,%rax
  1023f6:	48 03 45 b0          	add    -0x50(%rbp),%rax
  1023fa:	48 8b 00             	mov    (%rax),%rax
  1023fd:	48 25 00 f0 ff ff    	and    $0xfffffffffffff000,%rax
  102403:	48 89 45 a8          	mov    %rax,-0x58(%rbp)
  102407:	48 8b 45 c8          	mov    -0x38(%rbp),%rax
  10240b:	48 c1 e0 03          	shl    $0x3,%rax
  10240f:	48 03 45 b0          	add    -0x50(%rbp),%rax
  102413:	48 c7 00 00 00 00 00 	movq   $0x0,(%rax)
  10241a:	0f 20 c3             	mov    %cr0,%rbx
  10241d:	48 89 5d a0          	mov    %rbx,-0x60(%rbp)
  102421:	48 8b 45 a0          	mov    -0x60(%rbp),%rax
  102425:	25 00 00 00 80       	and    $0x80000000,%eax
  10242a:	48 85 c0             	test   %rax,%rax
  10242d:	74 0c                	je     10243b <unmap_page+0x17a>
  10242f:	48 8b 45 e8          	mov    -0x18(%rbp),%rax
  102433:	48 89 c7             	mov    %rax,%rdi
  102436:	e8 fb f8 ff ff       	callq  101d36 <invlpg>
  10243b:	48 8b 45 a8          	mov    -0x58(%rbp),%rax
  10243f:	48 89 c7             	mov    %rax,%rdi
  102442:	e8 65 08 00 00       	callq  102cac <free_frame>
  102447:	b8 01 00 00 00       	mov    $0x1,%eax
  10244c:	48 83 c4 68          	add    $0x68,%rsp
  102450:	5b                   	pop    %rbx
  102451:	5d                   	pop    %rbp
  102452:	c3                   	retq   

0000000000102453 <set_page_writable>:
  102453:	55                   	push   %rbp
  102454:	48 89 e5             	mov    %rsp,%rbp
  102457:	53                   	push   %rbx
  102458:	48 83 ec 60          	sub    $0x60,%rsp
  10245c:	48 89 7d a0          	mov    %rdi,-0x60(%rbp)
  102460:	89 f0                	mov    %esi,%eax
  102462:	88 45 9c             	mov    %al,-0x64(%rbp)
  102465:	48 8b 45 a0          	mov    -0x60(%rbp),%rax
  102469:	48 89 45 e8          	mov    %rax,-0x18(%rbp)
  10246d:	48 8b 45 e8          	mov    -0x18(%rbp),%rax
  102471:	48 89 c7             	mov    %rax,%rdi
  102474:	e8 7c f9 ff ff       	callq  101df5 <get_pml4_index>
  102479:	48 89 45 e0          	mov    %rax,-0x20(%rbp)
  10247d:	48 8b 45 e8          	mov    -0x18(%rbp),%rax
  102481:	48 89 c7             	mov    %rax,%rdi
  102484:	e8 83 f9 ff ff       	callq  101e0c <get_pdpt_index>
  102489:	48 89 45 d8          	mov    %rax,-0x28(%rbp)
  10248d:	48 8b 45 e8          	mov    -0x18(%rbp),%rax
  102491:	48 89 c7             	mov    %rax,%rdi
  102494:	e8 8a f9 ff ff       	callq  101e23 <get_pd_index>
  102499:	48 89 45 d0          	mov    %rax,-0x30(%rbp)
  10249d:	48 8b 45 e8          	mov    -0x18(%rbp),%rax
  1024a1:	48 89 c7             	mov    %rax,%rdi
  1024a4:	e8 91 f9 ff ff       	callq  101e3a <get_pt_index>
  1024a9:	48 89 45 c8          	mov    %rax,-0x38(%rbp)
  1024ad:	48 8b 05 6c 4c 00 00 	mov    0x4c6c(%rip),%rax        # 107120 <pml4>
  1024b4:	48 8b 55 e0          	mov    -0x20(%rbp),%rdx
  1024b8:	48 c1 e2 03          	shl    $0x3,%rdx
  1024bc:	48 01 d0             	add    %rdx,%rax
  1024bf:	48 8b 00             	mov    (%rax),%rax
  1024c2:	83 e0 01             	and    $0x1,%eax
  1024c5:	48 85 c0             	test   %rax,%rax
  1024c8:	0f 84 de 00 00 00    	je     1025ac <set_page_writable+0x159>
  1024ce:	48 8b 05 4b 4c 00 00 	mov    0x4c4b(%rip),%rax        # 107120 <pml4>
  1024d5:	48 8b 55 e0          	mov    -0x20(%rbp),%rdx
  1024d9:	48 c1 e2 03          	shl    $0x3,%rdx
  1024dd:	48 01 d0             	add    %rdx,%rax
  1024e0:	48 8b 00             	mov    (%rax),%rax
  1024e3:	48 25 00 f0 ff ff    	and    $0xfffffffffffff000,%rax
  1024e9:	48 89 45 c0          	mov    %rax,-0x40(%rbp)
  1024ed:	48 8b 45 d8          	mov    -0x28(%rbp),%rax
  1024f1:	48 c1 e0 03          	shl    $0x3,%rax
  1024f5:	48 03 45 c0          	add    -0x40(%rbp),%rax
  1024f9:	48 8b 00             	mov    (%rax),%rax
  1024fc:	83 e0 01             	and    $0x1,%eax
  1024ff:	48 85 c0             	test   %rax,%rax
  102502:	0f 84 a7 00 00 00    	je     1025af <set_page_writable+0x15c>
  102508:	48 8b 45 d8          	mov    -0x28(%rbp),%rax
  10250c:	48 c1 e0 03          	shl    $0x3,%rax
  102510:	48 03 45 c0          	add    -0x40(%rbp),%rax
  102514:	48 8b 00             	mov    (%rax),%rax
  102517:	48 25 00 f0 ff ff    	and    $0xfffffffffffff000,%rax
  10251d:	48 89 45 b8          	mov    %rax,-0x48(%rbp)
  102521:	48 8b 45 d0          	mov    -0x30(%rbp),%rax
  102525:	48 c1 e0 03          	shl    $0x3,%rax
  102529:	48 03 45 b8          	add    -0x48(%rbp),%rax
  10252d:	48 8b 00             	mov    (%rax),%rax
  102530:	83 e0 01             	and    $0x1,%eax
  102533:	48 85 c0             	test   %rax,%rax
  102536:	74 7a                	je     1025b2 <set_page_writable+0x15f>
  102538:	48 8b 45 d0          	mov    -0x30(%rbp),%rax
  10253c:	48 c1 e0 03          	shl    $0x3,%rax
  102540:	48 03 45 b8          	add    -0x48(%rbp),%rax
  102544:	48 8b 00             	mov    (%rax),%rax
  102547:	48 25 00 f0 ff ff    	and    $0xfffffffffffff000,%rax
  10254d:	48 89 45 b0          	mov    %rax,-0x50(%rbp)
  102551:	48 8b 45 c8          	mov    -0x38(%rbp),%rax
  102555:	48 c1 e0 03          	shl    $0x3,%rax
  102559:	48 03 45 b0          	add    -0x50(%rbp),%rax
  10255d:	48 8b 00             	mov    (%rax),%rax
  102560:	48 89 45 f0          	mov    %rax,-0x10(%rbp)
  102564:	80 7d 9c 00          	cmpb   $0x0,-0x64(%rbp)
  102568:	74 07                	je     102571 <set_page_writable+0x11e>
  10256a:	48 83 4d f0 02       	orq    $0x2,-0x10(%rbp)
  10256f:	eb 05                	jmp    102576 <set_page_writable+0x123>
  102571:	48 83 65 f0 fd       	andq   $0xfffffffffffffffd,-0x10(%rbp)
  102576:	48 8b 45 c8          	mov    -0x38(%rbp),%rax
  10257a:	48 c1 e0 03          	shl    $0x3,%rax
  10257e:	48 03 45 b0          	add    -0x50(%rbp),%rax
  102582:	48 8b 55 f0          	mov    -0x10(%rbp),%rdx
  102586:	48 89 10             	mov    %rdx,(%rax)
  102589:	0f 20 c3             	mov    %cr0,%rbx
  10258c:	48 89 5d a8          	mov    %rbx,-0x58(%rbp)
  102590:	48 8b 45 a8          	mov    -0x58(%rbp),%rax
  102594:	25 00 00 00 80       	and    $0x80000000,%eax
  102599:	48 85 c0             	test   %rax,%rax
  10259c:	74 15                	je     1025b3 <set_page_writable+0x160>
  10259e:	48 8b 45 e8          	mov    -0x18(%rbp),%rax
  1025a2:	48 89 c7             	mov    %rax,%rdi
  1025a5:	e8 8c f7 ff ff       	callq  101d36 <invlpg>
  1025aa:	eb 07                	jmp    1025b3 <set_page_writable+0x160>
  1025ac:	90                   	nop
  1025ad:	eb 04                	jmp    1025b3 <set_page_writable+0x160>
  1025af:	90                   	nop
  1025b0:	eb 01                	jmp    1025b3 <set_page_writable+0x160>
  1025b2:	90                   	nop
  1025b3:	48 83 c4 60          	add    $0x60,%rsp
  1025b7:	5b                   	pop    %rbx
  1025b8:	5d                   	pop    %rbp
  1025b9:	c3                   	retq   

00000000001025ba <set_page_user_access>:
  1025ba:	55                   	push   %rbp
  1025bb:	48 89 e5             	mov    %rsp,%rbp
  1025be:	53                   	push   %rbx
  1025bf:	48 83 ec 60          	sub    $0x60,%rsp
  1025c3:	48 89 7d a0          	mov    %rdi,-0x60(%rbp)
  1025c7:	89 f0                	mov    %esi,%eax
  1025c9:	88 45 9c             	mov    %al,-0x64(%rbp)
  1025cc:	48 8b 45 a0          	mov    -0x60(%rbp),%rax
  1025d0:	48 89 45 e8          	mov    %rax,-0x18(%rbp)
  1025d4:	48 8b 45 e8          	mov    -0x18(%rbp),%rax
  1025d8:	48 89 c7             	mov    %rax,%rdi
  1025db:	e8 15 f8 ff ff       	callq  101df5 <get_pml4_index>
  1025e0:	48 89 45 e0          	mov    %rax,-0x20(%rbp)
  1025e4:	48 8b 45 e8          	mov    -0x18(%rbp),%rax
  1025e8:	48 89 c7             	mov    %rax,%rdi
  1025eb:	e8 1c f8 ff ff       	callq  101e0c <get_pdpt_index>
  1025f0:	48 89 45 d8          	mov    %rax,-0x28(%rbp)
  1025f4:	48 8b 45 e8          	mov    -0x18(%rbp),%rax
  1025f8:	48 89 c7             	mov    %rax,%rdi
  1025fb:	e8 23 f8 ff ff       	callq  101e23 <get_pd_index>
  102600:	48 89 45 d0          	mov    %rax,-0x30(%rbp)
  102604:	48 8b 45 e8          	mov    -0x18(%rbp),%rax
  102608:	48 89 c7             	mov    %rax,%rdi
  10260b:	e8 2a f8 ff ff       	callq  101e3a <get_pt_index>
  102610:	48 89 45 c8          	mov    %rax,-0x38(%rbp)
  102614:	48 8b 05 05 4b 00 00 	mov    0x4b05(%rip),%rax        # 107120 <pml4>
  10261b:	48 8b 55 e0          	mov    -0x20(%rbp),%rdx
  10261f:	48 c1 e2 03          	shl    $0x3,%rdx
  102623:	48 01 d0             	add    %rdx,%rax
  102626:	48 8b 00             	mov    (%rax),%rax
  102629:	83 e0 01             	and    $0x1,%eax
  10262c:	48 85 c0             	test   %rax,%rax
  10262f:	0f 84 f9 00 00 00    	je     10272e <set_page_user_access+0x174>
  102635:	48 8b 05 e4 4a 00 00 	mov    0x4ae4(%rip),%rax        # 107120 <pml4>
  10263c:	48 8b 55 e0          	mov    -0x20(%rbp),%rdx
  102640:	48 c1 e2 03          	shl    $0x3,%rdx
  102644:	48 01 d0             	add    %rdx,%rax
  102647:	48 8b 00             	mov    (%rax),%rax
  10264a:	48 25 00 f0 ff ff    	and    $0xfffffffffffff000,%rax
  102650:	48 89 45 c0          	mov    %rax,-0x40(%rbp)
  102654:	48 8b 45 d8          	mov    -0x28(%rbp),%rax
  102658:	48 c1 e0 03          	shl    $0x3,%rax
  10265c:	48 03 45 c0          	add    -0x40(%rbp),%rax
  102660:	48 8b 00             	mov    (%rax),%rax
  102663:	83 e0 01             	and    $0x1,%eax
  102666:	48 85 c0             	test   %rax,%rax
  102669:	0f 84 c2 00 00 00    	je     102731 <set_page_user_access+0x177>
  10266f:	48 8b 45 d8          	mov    -0x28(%rbp),%rax
  102673:	48 c1 e0 03          	shl    $0x3,%rax
  102677:	48 03 45 c0          	add    -0x40(%rbp),%rax
  10267b:	48 8b 00             	mov    (%rax),%rax
  10267e:	48 25 00 f0 ff ff    	and    $0xfffffffffffff000,%rax
  102684:	48 89 45 b8          	mov    %rax,-0x48(%rbp)
  102688:	48 8b 45 d0          	mov    -0x30(%rbp),%rax
  10268c:	48 c1 e0 03          	shl    $0x3,%rax
  102690:	48 03 45 b8          	add    -0x48(%rbp),%rax
  102694:	48 8b 00             	mov    (%rax),%rax
  102697:	83 e0 01             	and    $0x1,%eax
  10269a:	48 85 c0             	test   %rax,%rax
  10269d:	0f 84 91 00 00 00    	je     102734 <set_page_user_access+0x17a>
  1026a3:	48 8b 45 d0          	mov    -0x30(%rbp),%rax
  1026a7:	48 c1 e0 03          	shl    $0x3,%rax
  1026ab:	48 03 45 b8          	add    -0x48(%rbp),%rax
  1026af:	48 8b 00             	mov    (%rax),%rax
  1026b2:	48 25 00 f0 ff ff    	and    $0xfffffffffffff000,%rax
  1026b8:	48 89 45 b0          	mov    %rax,-0x50(%rbp)
  1026bc:	48 8b 45 c8          	mov    -0x38(%rbp),%rax
  1026c0:	48 c1 e0 03          	shl    $0x3,%rax
  1026c4:	48 03 45 b0          	add    -0x50(%rbp),%rax
  1026c8:	48 8b 00             	mov    (%rax),%rax
  1026cb:	83 e0 01             	and    $0x1,%eax
  1026ce:	48 85 c0             	test   %rax,%rax
  1026d1:	74 64                	je     102737 <set_page_user_access+0x17d>
  1026d3:	48 8b 45 c8          	mov    -0x38(%rbp),%rax
  1026d7:	48 c1 e0 03          	shl    $0x3,%rax
  1026db:	48 03 45 b0          	add    -0x50(%rbp),%rax
  1026df:	48 8b 00             	mov    (%rax),%rax
  1026e2:	48 89 45 f0          	mov    %rax,-0x10(%rbp)
  1026e6:	80 7d 9c 00          	cmpb   $0x0,-0x64(%rbp)
  1026ea:	74 07                	je     1026f3 <set_page_user_access+0x139>
  1026ec:	48 83 4d f0 04       	orq    $0x4,-0x10(%rbp)
  1026f1:	eb 05                	jmp    1026f8 <set_page_user_access+0x13e>
  1026f3:	48 83 65 f0 fb       	andq   $0xfffffffffffffffb,-0x10(%rbp)
  1026f8:	48 8b 45 c8          	mov    -0x38(%rbp),%rax
  1026fc:	48 c1 e0 03          	shl    $0x3,%rax
  102700:	48 03 45 b0          	add    -0x50(%rbp),%rax
  102704:	48 8b 55 f0          	mov    -0x10(%rbp),%rdx
  102708:	48 89 10             	mov    %rdx,(%rax)
  10270b:	0f 20 c3             	mov    %cr0,%rbx
  10270e:	48 89 5d a8          	mov    %rbx,-0x58(%rbp)
  102712:	48 8b 45 a8          	mov    -0x58(%rbp),%rax
  102716:	25 00 00 00 80       	and    $0x80000000,%eax
  10271b:	48 85 c0             	test   %rax,%rax
  10271e:	74 18                	je     102738 <set_page_user_access+0x17e>
  102720:	48 8b 45 e8          	mov    -0x18(%rbp),%rax
  102724:	48 89 c7             	mov    %rax,%rdi
  102727:	e8 0a f6 ff ff       	callq  101d36 <invlpg>
  10272c:	eb 0a                	jmp    102738 <set_page_user_access+0x17e>
  10272e:	90                   	nop
  10272f:	eb 07                	jmp    102738 <set_page_user_access+0x17e>
  102731:	90                   	nop
  102732:	eb 04                	jmp    102738 <set_page_user_access+0x17e>
  102734:	90                   	nop
  102735:	eb 01                	jmp    102738 <set_page_user_access+0x17e>
  102737:	90                   	nop
  102738:	48 83 c4 60          	add    $0x60,%rsp
  10273c:	5b                   	pop    %rbx
  10273d:	5d                   	pop    %rbp
  10273e:	c3                   	retq   
	...

0000000000102740 <__cli>:
  102740:	55                   	push   %rbp
  102741:	48 89 e5             	mov    %rsp,%rbp
  102744:	fa                   	cli    
  102745:	5d                   	pop    %rbp
  102746:	c3                   	retq   

0000000000102747 <__hlt>:
  102747:	55                   	push   %rbp
  102748:	48 89 e5             	mov    %rsp,%rbp
  10274b:	f4                   	hlt    
  10274c:	5d                   	pop    %rbp
  10274d:	c3                   	retq   

000000000010274e <bugcheck_system>:
  10274e:	55                   	push   %rbp
  10274f:	48 89 e5             	mov    %rsp,%rbp
  102752:	41 57                	push   %r15
  102754:	41 56                	push   %r14
  102756:	41 55                	push   %r13
  102758:	41 54                	push   %r12
  10275a:	53                   	push   %rbx
  10275b:	48 81 ec e8 00 00 00 	sub    $0xe8,%rsp
  102762:	48 89 7d c8          	mov    %rdi,-0x38(%rbp)
  102766:	89 75 c4             	mov    %esi,-0x3c(%rbp)
  102769:	89 55 c0             	mov    %edx,-0x40(%rbp)
  10276c:	89 c8                	mov    %ecx,%eax
  10276e:	88 45 bc             	mov    %al,-0x44(%rbp)
  102771:	e8 ca ff ff ff       	callq  102740 <__cli>
  102776:	48 8b 05 db 5a 00 00 	mov    0x5adb(%rip),%rax        # 108258 <gop>
  10277d:	be ff 00 00 ff       	mov    $0xff0000ff,%esi
  102782:	48 89 c7             	mov    %rax,%rdi
  102785:	e8 6d 19 00 00       	callq  1040f7 <gop_clear_screen>
  10278a:	48 8b 05 c7 5a 00 00 	mov    0x5ac7(%rip),%rax        # 108258 <gop>
  102791:	ba 38 5f 10 00       	mov    $0x105f38,%edx
  102796:	be ff ff ff ff       	mov    $0xffffffff,%esi
  10279b:	48 89 c7             	mov    %rax,%rdi
  10279e:	b8 00 00 00 00       	mov    $0x0,%eax
  1027a3:	e8 cc 14 00 00       	callq  103c74 <gop_printf>
  1027a8:	48 8b 05 a9 5a 00 00 	mov    0x5aa9(%rip),%rax        # 108258 <gop>
  1027af:	ba 78 5f 10 00       	mov    $0x105f78,%edx
  1027b4:	be ff ff ff ff       	mov    $0xffffffff,%esi
  1027b9:	48 89 c7             	mov    %rax,%rdi
  1027bc:	b8 00 00 00 00       	mov    $0x0,%eax
  1027c1:	e8 ae 14 00 00       	callq  103c74 <gop_printf>
  1027c6:	48 8b 05 8b 5a 00 00 	mov    0x5a8b(%rip),%rax        # 108258 <gop>
  1027cd:	ba a3 5f 10 00       	mov    $0x105fa3,%edx
  1027d2:	be ff ff ff ff       	mov    $0xffffffff,%esi
  1027d7:	48 89 c7             	mov    %rax,%rdi
  1027da:	b8 00 00 00 00       	mov    $0x0,%eax
  1027df:	e8 90 14 00 00       	callq  103c74 <gop_printf>
  1027e4:	48 8b 05 6d 5a 00 00 	mov    0x5a6d(%rip),%rax        # 108258 <gop>
  1027eb:	8b 55 c4             	mov    -0x3c(%rbp),%edx
  1027ee:	89 d1                	mov    %edx,%ecx
  1027f0:	ba af 5f 10 00       	mov    $0x105faf,%edx
  1027f5:	be 00 ff ff ff       	mov    $0xffffff00,%esi
  1027fa:	48 89 c7             	mov    %rax,%rdi
  1027fd:	b8 00 00 00 00       	mov    $0x0,%eax
  102802:	e8 6d 14 00 00       	callq  103c74 <gop_printf>
  102807:	48 83 7d c8 00       	cmpq   $0x0,-0x38(%rbp)
  10280c:	0f 84 63 01 00 00    	je     102975 <bugcheck_system+0x227>
  102812:	48 8b 45 c8          	mov    -0x38(%rbp),%rax
  102816:	48 8b b0 98 00 00 00 	mov    0x98(%rax),%rsi
  10281d:	48 8b 45 c8          	mov    -0x38(%rbp),%rax
  102821:	4c 8b 88 90 00 00 00 	mov    0x90(%rax),%r9
  102828:	48 8b 45 c8          	mov    -0x38(%rbp),%rax
  10282c:	4c 8b 90 88 00 00 00 	mov    0x88(%rax),%r10
  102833:	48 8b 45 c8          	mov    -0x38(%rbp),%rax
  102837:	48 8b 98 80 00 00 00 	mov    0x80(%rax),%rbx
  10283e:	48 8b 45 c8          	mov    -0x38(%rbp),%rax
  102842:	4c 8b 60 78          	mov    0x78(%rax),%r12
  102846:	48 8b 45 c8          	mov    -0x38(%rbp),%rax
  10284a:	4c 8b 70 70          	mov    0x70(%rax),%r14
  10284e:	48 8b 45 c8          	mov    -0x38(%rbp),%rax
  102852:	48 8b 40 68          	mov    0x68(%rax),%rax
  102856:	48 89 45 b0          	mov    %rax,-0x50(%rbp)
  10285a:	48 8b 45 c8          	mov    -0x38(%rbp),%rax
  10285e:	48 8b 40 60          	mov    0x60(%rax),%rax
  102862:	48 89 45 a8          	mov    %rax,-0x58(%rbp)
  102866:	48 8b 45 c8          	mov    -0x38(%rbp),%rax
  10286a:	48 8b 40 58          	mov    0x58(%rax),%rax
  10286e:	48 89 45 a0          	mov    %rax,-0x60(%rbp)
  102872:	48 8b 45 c8          	mov    -0x38(%rbp),%rax
  102876:	48 8b 40 50          	mov    0x50(%rax),%rax
  10287a:	48 89 45 98          	mov    %rax,-0x68(%rbp)
  10287e:	48 8b 45 c8          	mov    -0x38(%rbp),%rax
  102882:	48 8b 40 48          	mov    0x48(%rax),%rax
  102886:	48 89 45 90          	mov    %rax,-0x70(%rbp)
  10288a:	48 8b 45 c8          	mov    -0x38(%rbp),%rax
  10288e:	48 8b 40 40          	mov    0x40(%rax),%rax
  102892:	48 89 45 88          	mov    %rax,-0x78(%rbp)
  102896:	48 8b 45 c8          	mov    -0x38(%rbp),%rax
  10289a:	48 8b 40 38          	mov    0x38(%rax),%rax
  10289e:	48 89 45 80          	mov    %rax,-0x80(%rbp)
  1028a2:	48 8b 45 c8          	mov    -0x38(%rbp),%rax
  1028a6:	4c 8b 78 30          	mov    0x30(%rax),%r15
  1028aa:	48 8b 45 c8          	mov    -0x38(%rbp),%rax
  1028ae:	4c 8b 68 28          	mov    0x28(%rax),%r13
  1028b2:	48 8b 45 c8          	mov    -0x38(%rbp),%rax
  1028b6:	4c 8b 58 20          	mov    0x20(%rax),%r11
  1028ba:	48 8b 45 c8          	mov    -0x38(%rbp),%rax
  1028be:	4c 8b 40 18          	mov    0x18(%rax),%r8
  1028c2:	48 8b 45 c8          	mov    -0x38(%rbp),%rax
  1028c6:	48 8b 78 10          	mov    0x10(%rax),%rdi
  1028ca:	48 8b 45 c8          	mov    -0x38(%rbp),%rax
  1028ce:	48 8b 48 08          	mov    0x8(%rax),%rcx
  1028d2:	48 8b 45 c8          	mov    -0x38(%rbp),%rax
  1028d6:	48 8b 10             	mov    (%rax),%rdx
  1028d9:	48 8b 05 78 59 00 00 	mov    0x5978(%rip),%rax        # 108258 <gop>
  1028e0:	48 89 b4 24 80 00 00 	mov    %rsi,0x80(%rsp)
  1028e7:	00 
  1028e8:	4c 89 4c 24 78       	mov    %r9,0x78(%rsp)
  1028ed:	4c 89 54 24 70       	mov    %r10,0x70(%rsp)
  1028f2:	48 89 5c 24 68       	mov    %rbx,0x68(%rsp)
  1028f7:	4c 89 64 24 60       	mov    %r12,0x60(%rsp)
  1028fc:	4c 89 74 24 58       	mov    %r14,0x58(%rsp)
  102901:	48 8b 5d b0          	mov    -0x50(%rbp),%rbx
  102905:	48 89 5c 24 50       	mov    %rbx,0x50(%rsp)
  10290a:	48 8b 5d a8          	mov    -0x58(%rbp),%rbx
  10290e:	48 89 5c 24 48       	mov    %rbx,0x48(%rsp)
  102913:	48 8b 5d a0          	mov    -0x60(%rbp),%rbx
  102917:	48 89 5c 24 40       	mov    %rbx,0x40(%rsp)
  10291c:	48 8b 5d 98          	mov    -0x68(%rbp),%rbx
  102920:	48 89 5c 24 38       	mov    %rbx,0x38(%rsp)
  102925:	48 8b 5d 90          	mov    -0x70(%rbp),%rbx
  102929:	48 89 5c 24 30       	mov    %rbx,0x30(%rsp)
  10292e:	48 8b 5d 88          	mov    -0x78(%rbp),%rbx
  102932:	48 89 5c 24 28       	mov    %rbx,0x28(%rsp)
  102937:	48 8b 5d 80          	mov    -0x80(%rbp),%rbx
  10293b:	48 89 5c 24 20       	mov    %rbx,0x20(%rsp)
  102940:	4c 89 7c 24 18       	mov    %r15,0x18(%rsp)
  102945:	4c 89 6c 24 10       	mov    %r13,0x10(%rsp)
  10294a:	4c 89 5c 24 08       	mov    %r11,0x8(%rsp)
  10294f:	4c 89 04 24          	mov    %r8,(%rsp)
  102953:	49 89 f9             	mov    %rdi,%r9
  102956:	49 89 c8             	mov    %rcx,%r8
  102959:	48 89 d1             	mov    %rdx,%rcx
  10295c:	ba b8 5f 10 00       	mov    $0x105fb8,%edx
  102961:	be ff ff ff ff       	mov    $0xffffffff,%esi
  102966:	48 89 c7             	mov    %rax,%rdi
  102969:	b8 00 00 00 00       	mov    $0x0,%eax
  10296e:	e8 01 13 00 00       	callq  103c74 <gop_printf>
  102973:	eb 1e                	jmp    102993 <bugcheck_system+0x245>
  102975:	48 8b 05 dc 58 00 00 	mov    0x58dc(%rip),%rax        # 108258 <gop>
  10297c:	ba ee 60 10 00       	mov    $0x1060ee,%edx
  102981:	be 00 00 ff ff       	mov    $0xffff0000,%esi
  102986:	48 89 c7             	mov    %rax,%rdi
  102989:	b8 00 00 00 00       	mov    $0x0,%eax
  10298e:	e8 e1 12 00 00       	callq  103c74 <gop_printf>
  102993:	80 7d bc 00          	cmpb   $0x0,-0x44(%rbp)
  102997:	74 4e                	je     1029e7 <bugcheck_system+0x299>
  102999:	83 7d c4 0e          	cmpl   $0xe,-0x3c(%rbp)
  10299d:	75 25                	jne    1029c4 <bugcheck_system+0x276>
  10299f:	48 8b 05 b2 58 00 00 	mov    0x58b2(%rip),%rax        # 108258 <gop>
  1029a6:	8b 55 c0             	mov    -0x40(%rbp),%edx
  1029a9:	89 d1                	mov    %edx,%ecx
  1029ab:	ba 06 61 10 00       	mov    $0x106106,%edx
  1029b0:	be 00 a5 ff ff       	mov    $0xffffa500,%esi
  1029b5:	48 89 c7             	mov    %rax,%rdi
  1029b8:	b8 00 00 00 00       	mov    $0x0,%eax
  1029bd:	e8 b2 12 00 00       	callq  103c74 <gop_printf>
  1029c2:	eb 23                	jmp    1029e7 <bugcheck_system+0x299>
  1029c4:	48 8b 05 8d 58 00 00 	mov    0x588d(%rip),%rax        # 108258 <gop>
  1029cb:	8b 55 c0             	mov    -0x40(%rbp),%edx
  1029ce:	89 d1                	mov    %edx,%ecx
  1029d0:	ba 1c 61 10 00       	mov    $0x10611c,%edx
  1029d5:	be 80 00 80 ff       	mov    $0xff800080,%esi
  1029da:	48 89 c7             	mov    %rax,%rdi
  1029dd:	b8 00 00 00 00       	mov    $0x0,%eax
  1029e2:	e8 8d 12 00 00       	callq  103c74 <gop_printf>
  1029e7:	e8 5b fd ff ff       	callq  102747 <__hlt>
  1029ec:	48 81 c4 e8 00 00 00 	add    $0xe8,%rsp
  1029f3:	5b                   	pop    %rbx
  1029f4:	41 5c                	pop    %r12
  1029f6:	41 5d                	pop    %r13
  1029f8:	41 5e                	pop    %r14
  1029fa:	41 5f                	pop    %r15
  1029fc:	5d                   	pop    %rbp
  1029fd:	c3                   	retq   
	...

0000000000102a00 <set_frame>:
  102a00:	55                   	push   %rbp
  102a01:	48 89 e5             	mov    %rsp,%rbp
  102a04:	53                   	push   %rbx
  102a05:	48 83 ec 18          	sub    $0x18,%rsp
  102a09:	48 89 7d e8          	mov    %rdi,-0x18(%rbp)
  102a0d:	48 81 7d e8 ff 7f 00 	cmpq   $0x7fff,-0x18(%rbp)
  102a14:	00 
  102a15:	76 19                	jbe    102a30 <set_frame+0x30>
  102a17:	b9 01 00 00 00       	mov    $0x1,%ecx
  102a1c:	ba 0d f0 ad 0b       	mov    $0xbadf00d,%edx
  102a21:	be 12 00 00 00       	mov    $0x12,%esi
  102a26:	bf 00 00 00 00       	mov    $0x0,%edi
  102a2b:	e8 1e fd ff ff       	callq  10274e <bugcheck_system>
  102a30:	48 8b 45 e8          	mov    -0x18(%rbp),%rax
  102a34:	48 c1 e8 03          	shr    $0x3,%rax
  102a38:	0f b6 b0 80 71 10 00 	movzbl 0x107180(%rax),%esi
  102a3f:	48 8b 55 e8          	mov    -0x18(%rbp),%rdx
  102a43:	83 e2 07             	and    $0x7,%edx
  102a46:	bf 01 00 00 00       	mov    $0x1,%edi
  102a4b:	89 fb                	mov    %edi,%ebx
  102a4d:	89 d1                	mov    %edx,%ecx
  102a4f:	d3 e3                	shl    %cl,%ebx
  102a51:	89 da                	mov    %ebx,%edx
  102a53:	09 f2                	or     %esi,%edx
  102a55:	88 90 80 71 10 00    	mov    %dl,0x107180(%rax)
  102a5b:	48 83 c4 18          	add    $0x18,%rsp
  102a5f:	5b                   	pop    %rbx
  102a60:	5d                   	pop    %rbp
  102a61:	c3                   	retq   

0000000000102a62 <clear_frame>:
  102a62:	55                   	push   %rbp
  102a63:	48 89 e5             	mov    %rsp,%rbp
  102a66:	53                   	push   %rbx
  102a67:	48 89 7d f0          	mov    %rdi,-0x10(%rbp)
  102a6b:	48 81 7d f0 ff 7f 00 	cmpq   $0x7fff,-0x10(%rbp)
  102a72:	00 
  102a73:	77 2b                	ja     102aa0 <clear_frame+0x3e>
  102a75:	48 8b 45 f0          	mov    -0x10(%rbp),%rax
  102a79:	48 c1 e8 03          	shr    $0x3,%rax
  102a7d:	0f b6 90 80 71 10 00 	movzbl 0x107180(%rax),%edx
  102a84:	48 8b 4d f0          	mov    -0x10(%rbp),%rcx
  102a88:	83 e1 07             	and    $0x7,%ecx
  102a8b:	be 01 00 00 00       	mov    $0x1,%esi
  102a90:	89 f3                	mov    %esi,%ebx
  102a92:	d3 e3                	shl    %cl,%ebx
  102a94:	89 d9                	mov    %ebx,%ecx
  102a96:	f7 d1                	not    %ecx
  102a98:	21 ca                	and    %ecx,%edx
  102a9a:	88 90 80 71 10 00    	mov    %dl,0x107180(%rax)
  102aa0:	5b                   	pop    %rbx
  102aa1:	5d                   	pop    %rbp
  102aa2:	c3                   	retq   

0000000000102aa3 <frame_bitmap_init>:
  102aa3:	55                   	push   %rbp
  102aa4:	48 89 e5             	mov    %rsp,%rbp
  102aa7:	48 83 ec 70          	sub    $0x70,%rsp
  102aab:	ba 00 10 00 00       	mov    $0x1000,%edx
  102ab0:	be ff 00 00 00       	mov    $0xff,%esi
  102ab5:	bf 80 71 10 00       	mov    $0x107180,%edi
  102aba:	e8 8c ef ff ff       	callq  101a4b <kmemset>
  102abf:	0f b6 05 3a d5 ff ff 	movzbl -0x2ac6(%rip),%eax        # 100000 <_start>
  102ac6:	0f b6 c0             	movzbl %al,%eax
  102ac9:	48 89 45 e0          	mov    %rax,-0x20(%rbp)
  102acd:	0f b6 05 2c d5 04 00 	movzbl 0x4d52c(%rip),%eax        # 150000 <__stack_end>
  102ad4:	0f b6 c0             	movzbl %al,%eax
  102ad7:	48 89 45 d8          	mov    %rax,-0x28(%rbp)
  102adb:	48 8b 45 e0          	mov    -0x20(%rbp),%rax
  102adf:	48 c1 e8 0c          	shr    $0xc,%rax
  102ae3:	48 89 45 d0          	mov    %rax,-0x30(%rbp)
  102ae7:	48 8b 45 d8          	mov    -0x28(%rbp),%rax
  102aeb:	48 05 ff 0f 00 00    	add    $0xfff,%rax
  102af1:	48 c1 e8 0c          	shr    $0xc,%rax
  102af5:	48 89 45 c8          	mov    %rax,-0x38(%rbp)
  102af9:	48 8b 45 d0          	mov    -0x30(%rbp),%rax
  102afd:	48 89 45 f8          	mov    %rax,-0x8(%rbp)
  102b01:	eb 11                	jmp    102b14 <frame_bitmap_init+0x71>
  102b03:	48 8b 45 f8          	mov    -0x8(%rbp),%rax
  102b07:	48 89 c7             	mov    %rax,%rdi
  102b0a:	e8 f1 fe ff ff       	callq  102a00 <set_frame>
  102b0f:	48 83 45 f8 01       	addq   $0x1,-0x8(%rbp)
  102b14:	48 8b 45 f8          	mov    -0x8(%rbp),%rax
  102b18:	48 3b 45 c8          	cmp    -0x38(%rbp),%rax
  102b1c:	72 e5                	jb     102b03 <frame_bitmap_init+0x60>
  102b1e:	48 8b 05 23 46 00 00 	mov    0x4623(%rip),%rax        # 107148 <gEfiMemoryMapSize>
  102b25:	48 8b 15 24 46 00 00 	mov    0x4624(%rip),%rdx        # 107150 <gEfiDescriptorSize>
  102b2c:	48 89 55 98          	mov    %rdx,-0x68(%rbp)
  102b30:	ba 00 00 00 00       	mov    $0x0,%edx
  102b35:	48 f7 75 98          	divq   -0x68(%rbp)
  102b39:	48 89 45 c0          	mov    %rax,-0x40(%rbp)
  102b3d:	48 c7 45 f0 00 00 00 	movq   $0x0,-0x10(%rbp)
  102b44:	00 
  102b45:	e9 8e 00 00 00       	jmpq   102bd8 <frame_bitmap_init+0x135>
  102b4a:	48 8b 15 ef 45 00 00 	mov    0x45ef(%rip),%rdx        # 107140 <gEfiMemoryMap>
  102b51:	48 8b 05 f8 45 00 00 	mov    0x45f8(%rip),%rax        # 107150 <gEfiDescriptorSize>
  102b58:	48 0f af 45 f0       	imul   -0x10(%rbp),%rax
  102b5d:	48 01 d0             	add    %rdx,%rax
  102b60:	48 89 45 b8          	mov    %rax,-0x48(%rbp)
  102b64:	48 8b 45 b8          	mov    -0x48(%rbp),%rax
  102b68:	8b 00                	mov    (%rax),%eax
  102b6a:	83 f8 07             	cmp    $0x7,%eax
  102b6d:	75 64                	jne    102bd3 <frame_bitmap_init+0x130>
  102b6f:	48 8b 45 b8          	mov    -0x48(%rbp),%rax
  102b73:	48 8b 40 08          	mov    0x8(%rax),%rax
  102b77:	48 89 45 b0          	mov    %rax,-0x50(%rbp)
  102b7b:	48 8b 45 b8          	mov    -0x48(%rbp),%rax
  102b7f:	48 8b 40 18          	mov    0x18(%rax),%rax
  102b83:	48 89 45 a8          	mov    %rax,-0x58(%rbp)
  102b87:	48 c7 45 e8 00 00 00 	movq   $0x0,-0x18(%rbp)
  102b8e:	00 
  102b8f:	eb 38                	jmp    102bc9 <frame_bitmap_init+0x126>
  102b91:	48 8b 45 b0          	mov    -0x50(%rbp),%rax
  102b95:	48 c1 e8 0c          	shr    $0xc,%rax
  102b99:	48 03 45 e8          	add    -0x18(%rbp),%rax
  102b9d:	48 89 45 a0          	mov    %rax,-0x60(%rbp)
  102ba1:	48 8b 45 a0          	mov    -0x60(%rbp),%rax
  102ba5:	48 3b 45 d0          	cmp    -0x30(%rbp),%rax
  102ba9:	72 0a                	jb     102bb5 <frame_bitmap_init+0x112>
  102bab:	48 8b 45 a0          	mov    -0x60(%rbp),%rax
  102baf:	48 3b 45 c8          	cmp    -0x38(%rbp),%rax
  102bb3:	72 0e                	jb     102bc3 <frame_bitmap_init+0x120>
  102bb5:	48 8b 45 a0          	mov    -0x60(%rbp),%rax
  102bb9:	48 89 c7             	mov    %rax,%rdi
  102bbc:	e8 a1 fe ff ff       	callq  102a62 <clear_frame>
  102bc1:	eb 01                	jmp    102bc4 <frame_bitmap_init+0x121>
  102bc3:	90                   	nop
  102bc4:	48 83 45 e8 01       	addq   $0x1,-0x18(%rbp)
  102bc9:	48 8b 45 e8          	mov    -0x18(%rbp),%rax
  102bcd:	48 3b 45 a8          	cmp    -0x58(%rbp),%rax
  102bd1:	72 be                	jb     102b91 <frame_bitmap_init+0xee>
  102bd3:	48 83 45 f0 01       	addq   $0x1,-0x10(%rbp)
  102bd8:	48 8b 45 f0          	mov    -0x10(%rbp),%rax
  102bdc:	48 3b 45 c0          	cmp    -0x40(%rbp),%rax
  102be0:	0f 82 64 ff ff ff    	jb     102b4a <frame_bitmap_init+0xa7>
  102be6:	c9                   	leaveq 
  102be7:	c3                   	retq   

0000000000102be8 <alloc_frame>:
  102be8:	55                   	push   %rbp
  102be9:	48 89 e5             	mov    %rsp,%rbp
  102bec:	53                   	push   %rbx
  102bed:	48 8b 05 3c 45 00 00 	mov    0x453c(%rip),%rax        # 107130 <next_pt>
  102bf4:	48 8d 90 00 10 00 00 	lea    0x1000(%rax),%rdx
  102bfb:	48 8b 05 fe 93 04 00 	mov    0x493fe(%rip),%rax        # 14c000 <__pt_end>
  102c02:	48 39 c2             	cmp    %rax,%rdx
  102c05:	77 25                	ja     102c2c <alloc_frame+0x44>
  102c07:	48 8b 05 22 45 00 00 	mov    0x4522(%rip),%rax        # 107130 <next_pt>
  102c0e:	48 89 45 e8          	mov    %rax,-0x18(%rbp)
  102c12:	48 8b 05 17 45 00 00 	mov    0x4517(%rip),%rax        # 107130 <next_pt>
  102c19:	48 05 00 10 00 00    	add    $0x1000,%rax
  102c1f:	48 89 05 0a 45 00 00 	mov    %rax,0x450a(%rip)        # 107130 <next_pt>
  102c26:	48 8b 45 e8          	mov    -0x18(%rbp),%rax
  102c2a:	eb 7d                	jmp    102ca9 <alloc_frame+0xc1>
  102c2c:	48 c7 45 f0 00 00 00 	movq   $0x0,-0x10(%rbp)
  102c33:	00 
  102c34:	eb 64                	jmp    102c9a <alloc_frame+0xb2>
  102c36:	48 8b 45 f0          	mov    -0x10(%rbp),%rax
  102c3a:	48 c1 e8 03          	shr    $0x3,%rax
  102c3e:	0f b6 80 80 71 10 00 	movzbl 0x107180(%rax),%eax
  102c45:	0f b6 d0             	movzbl %al,%edx
  102c48:	48 8b 45 f0          	mov    -0x10(%rbp),%rax
  102c4c:	83 e0 07             	and    $0x7,%eax
  102c4f:	89 d3                	mov    %edx,%ebx
  102c51:	89 c1                	mov    %eax,%ecx
  102c53:	d3 fb                	sar    %cl,%ebx
  102c55:	89 d8                	mov    %ebx,%eax
  102c57:	83 e0 01             	and    $0x1,%eax
  102c5a:	85 c0                	test   %eax,%eax
  102c5c:	75 37                	jne    102c95 <alloc_frame+0xad>
  102c5e:	48 8b 45 f0          	mov    -0x10(%rbp),%rax
  102c62:	48 c1 e8 03          	shr    $0x3,%rax
  102c66:	0f b6 90 80 71 10 00 	movzbl 0x107180(%rax),%edx
  102c6d:	89 d6                	mov    %edx,%esi
  102c6f:	48 8b 55 f0          	mov    -0x10(%rbp),%rdx
  102c73:	83 e2 07             	and    $0x7,%edx
  102c76:	bf 01 00 00 00       	mov    $0x1,%edi
  102c7b:	89 fb                	mov    %edi,%ebx
  102c7d:	89 d1                	mov    %edx,%ecx
  102c7f:	d3 e3                	shl    %cl,%ebx
  102c81:	89 da                	mov    %ebx,%edx
  102c83:	09 f2                	or     %esi,%edx
  102c85:	88 90 80 71 10 00    	mov    %dl,0x107180(%rax)
  102c8b:	48 8b 45 f0          	mov    -0x10(%rbp),%rax
  102c8f:	48 c1 e0 0c          	shl    $0xc,%rax
  102c93:	eb 14                	jmp    102ca9 <alloc_frame+0xc1>
  102c95:	48 83 45 f0 01       	addq   $0x1,-0x10(%rbp)
  102c9a:	48 81 7d f0 ff 7f 00 	cmpq   $0x7fff,-0x10(%rbp)
  102ca1:	00 
  102ca2:	76 92                	jbe    102c36 <alloc_frame+0x4e>
  102ca4:	b8 00 00 00 00       	mov    $0x0,%eax
  102ca9:	5b                   	pop    %rbx
  102caa:	5d                   	pop    %rbp
  102cab:	c3                   	retq   

0000000000102cac <free_frame>:
  102cac:	55                   	push   %rbp
  102cad:	48 89 e5             	mov    %rsp,%rbp
  102cb0:	48 83 ec 18          	sub    $0x18,%rsp
  102cb4:	48 89 7d e8          	mov    %rdi,-0x18(%rbp)
  102cb8:	48 8b 45 e8          	mov    -0x18(%rbp),%rax
  102cbc:	48 c1 e8 0c          	shr    $0xc,%rax
  102cc0:	48 89 45 f8          	mov    %rax,-0x8(%rbp)
  102cc4:	48 8b 45 f8          	mov    -0x8(%rbp),%rax
  102cc8:	48 89 c7             	mov    %rax,%rdi
  102ccb:	e8 92 fd ff ff       	callq  102a62 <clear_frame>
  102cd0:	c9                   	leaveq 
  102cd1:	c3                   	retq   
	...

0000000000102cd4 <__inword>:
  102cd4:	55                   	push   %rbp
  102cd5:	48 89 e5             	mov    %rsp,%rbp
  102cd8:	53                   	push   %rbx
  102cd9:	89 f8                	mov    %edi,%eax
  102cdb:	66 89 45 e4          	mov    %ax,-0x1c(%rbp)
  102cdf:	0f b7 55 e4          	movzwl -0x1c(%rbp),%edx
  102ce3:	66 89 55 e2          	mov    %dx,-0x1e(%rbp)
  102ce7:	0f b7 55 e2          	movzwl -0x1e(%rbp),%edx
  102ceb:	66 ed                	in     (%dx),%ax
  102ced:	89 c3                	mov    %eax,%ebx
  102cef:	66 89 5d f6          	mov    %bx,-0xa(%rbp)
  102cf3:	0f b7 45 f6          	movzwl -0xa(%rbp),%eax
  102cf7:	5b                   	pop    %rbx
  102cf8:	5d                   	pop    %rbp
  102cf9:	c3                   	retq   

0000000000102cfa <__outword>:
  102cfa:	55                   	push   %rbp
  102cfb:	48 89 e5             	mov    %rsp,%rbp
  102cfe:	89 fa                	mov    %edi,%edx
  102d00:	89 f0                	mov    %esi,%eax
  102d02:	66 89 55 fc          	mov    %dx,-0x4(%rbp)
  102d06:	66 89 45 f8          	mov    %ax,-0x8(%rbp)
  102d0a:	0f b7 45 f8          	movzwl -0x8(%rbp),%eax
  102d0e:	0f b7 55 fc          	movzwl -0x4(%rbp),%edx
  102d12:	66 ef                	out    %ax,(%dx)
  102d14:	5d                   	pop    %rbp
  102d15:	c3                   	retq   

0000000000102d16 <__inbyte>:
  102d16:	55                   	push   %rbp
  102d17:	48 89 e5             	mov    %rsp,%rbp
  102d1a:	53                   	push   %rbx
  102d1b:	89 f8                	mov    %edi,%eax
  102d1d:	66 89 45 e4          	mov    %ax,-0x1c(%rbp)
  102d21:	0f b7 55 e4          	movzwl -0x1c(%rbp),%edx
  102d25:	66 89 55 e2          	mov    %dx,-0x1e(%rbp)
  102d29:	0f b7 55 e2          	movzwl -0x1e(%rbp),%edx
  102d2d:	ec                   	in     (%dx),%al
  102d2e:	89 c3                	mov    %eax,%ebx
  102d30:	88 5d f7             	mov    %bl,-0x9(%rbp)
  102d33:	0f b6 45 f7          	movzbl -0x9(%rbp),%eax
  102d37:	5b                   	pop    %rbx
  102d38:	5d                   	pop    %rbp
  102d39:	c3                   	retq   

0000000000102d3a <__outbyte>:
  102d3a:	55                   	push   %rbp
  102d3b:	48 89 e5             	mov    %rsp,%rbp
  102d3e:	89 fa                	mov    %edi,%edx
  102d40:	89 f0                	mov    %esi,%eax
  102d42:	66 89 55 fc          	mov    %dx,-0x4(%rbp)
  102d46:	88 45 f8             	mov    %al,-0x8(%rbp)
  102d49:	0f b6 45 f8          	movzbl -0x8(%rbp),%eax
  102d4d:	0f b7 55 fc          	movzwl -0x4(%rbp),%edx
  102d51:	ee                   	out    %al,(%dx)
  102d52:	5d                   	pop    %rbp
  102d53:	c3                   	retq   

0000000000102d54 <ata_read_sector>:
  102d54:	55                   	push   %rbp
  102d55:	48 89 e5             	mov    %rsp,%rbp
  102d58:	53                   	push   %rbx
  102d59:	48 83 ec 28          	sub    $0x28,%rsp
  102d5d:	48 89 7d e0          	mov    %rdi,-0x20(%rbp)
  102d61:	89 75 dc             	mov    %esi,-0x24(%rbp)
  102d64:	48 89 55 d0          	mov    %rdx,-0x30(%rbp)
  102d68:	90                   	nop
  102d69:	bf f7 01 00 00       	mov    $0x1f7,%edi
  102d6e:	e8 a3 ff ff ff       	callq  102d16 <__inbyte>
  102d73:	84 c0                	test   %al,%al
  102d75:	78 f2                	js     102d69 <ata_read_sector+0x15>
  102d77:	8b 45 dc             	mov    -0x24(%rbp),%eax
  102d7a:	c1 e8 18             	shr    $0x18,%eax
  102d7d:	83 e0 0f             	and    $0xf,%eax
  102d80:	83 c8 e0             	or     $0xffffffe0,%eax
  102d83:	0f b6 c0             	movzbl %al,%eax
  102d86:	89 c6                	mov    %eax,%esi
  102d88:	bf f6 01 00 00       	mov    $0x1f6,%edi
  102d8d:	e8 a8 ff ff ff       	callq  102d3a <__outbyte>
  102d92:	be 01 00 00 00       	mov    $0x1,%esi
  102d97:	bf f2 01 00 00       	mov    $0x1f2,%edi
  102d9c:	e8 99 ff ff ff       	callq  102d3a <__outbyte>
  102da1:	8b 45 dc             	mov    -0x24(%rbp),%eax
  102da4:	0f b6 c0             	movzbl %al,%eax
  102da7:	89 c6                	mov    %eax,%esi
  102da9:	bf f3 01 00 00       	mov    $0x1f3,%edi
  102dae:	e8 87 ff ff ff       	callq  102d3a <__outbyte>
  102db3:	8b 45 dc             	mov    -0x24(%rbp),%eax
  102db6:	c1 e8 08             	shr    $0x8,%eax
  102db9:	0f b6 c0             	movzbl %al,%eax
  102dbc:	89 c6                	mov    %eax,%esi
  102dbe:	bf f4 01 00 00       	mov    $0x1f4,%edi
  102dc3:	e8 72 ff ff ff       	callq  102d3a <__outbyte>
  102dc8:	8b 45 dc             	mov    -0x24(%rbp),%eax
  102dcb:	c1 e8 10             	shr    $0x10,%eax
  102dce:	0f b6 c0             	movzbl %al,%eax
  102dd1:	89 c6                	mov    %eax,%esi
  102dd3:	bf f5 01 00 00       	mov    $0x1f5,%edi
  102dd8:	e8 5d ff ff ff       	callq  102d3a <__outbyte>
  102ddd:	be 20 00 00 00       	mov    $0x20,%esi
  102de2:	bf f7 01 00 00       	mov    $0x1f7,%edi
  102de7:	e8 4e ff ff ff       	callq  102d3a <__outbyte>
  102dec:	90                   	nop
  102ded:	bf f7 01 00 00       	mov    $0x1f7,%edi
  102df2:	e8 1f ff ff ff       	callq  102d16 <__inbyte>
  102df7:	84 c0                	test   %al,%al
  102df9:	78 f2                	js     102ded <ata_read_sector+0x99>
  102dfb:	90                   	nop
  102dfc:	bf f7 01 00 00       	mov    $0x1f7,%edi
  102e01:	e8 10 ff ff ff       	callq  102d16 <__inbyte>
  102e06:	0f b6 c0             	movzbl %al,%eax
  102e09:	83 e0 08             	and    $0x8,%eax
  102e0c:	85 c0                	test   %eax,%eax
  102e0e:	74 ec                	je     102dfc <ata_read_sector+0xa8>
  102e10:	48 8b 45 d0          	mov    -0x30(%rbp),%rax
  102e14:	48 89 45 e8          	mov    %rax,-0x18(%rbp)
  102e18:	c7 45 f4 00 00 00 00 	movl   $0x0,-0xc(%rbp)
  102e1f:	eb 20                	jmp    102e41 <ata_read_sector+0xed>
  102e21:	8b 45 f4             	mov    -0xc(%rbp),%eax
  102e24:	48 98                	cltq   
  102e26:	48 01 c0             	add    %rax,%rax
  102e29:	48 89 c3             	mov    %rax,%rbx
  102e2c:	48 03 5d e8          	add    -0x18(%rbp),%rbx
  102e30:	bf f0 01 00 00       	mov    $0x1f0,%edi
  102e35:	e8 9a fe ff ff       	callq  102cd4 <__inword>
  102e3a:	66 89 03             	mov    %ax,(%rbx)
  102e3d:	83 45 f4 01          	addl   $0x1,-0xc(%rbp)
  102e41:	81 7d f4 ff 00 00 00 	cmpl   $0xff,-0xc(%rbp)
  102e48:	7e d7                	jle    102e21 <ata_read_sector+0xcd>
  102e4a:	b8 01 00 00 00       	mov    $0x1,%eax
  102e4f:	48 83 c4 28          	add    $0x28,%rsp
  102e53:	5b                   	pop    %rbx
  102e54:	5d                   	pop    %rbp
  102e55:	c3                   	retq   

0000000000102e56 <ata_write_sector>:
  102e56:	55                   	push   %rbp
  102e57:	48 89 e5             	mov    %rsp,%rbp
  102e5a:	48 83 ec 28          	sub    $0x28,%rsp
  102e5e:	48 89 7d e8          	mov    %rdi,-0x18(%rbp)
  102e62:	89 75 e4             	mov    %esi,-0x1c(%rbp)
  102e65:	48 89 55 d8          	mov    %rdx,-0x28(%rbp)
  102e69:	90                   	nop
  102e6a:	bf f7 01 00 00       	mov    $0x1f7,%edi
  102e6f:	e8 a2 fe ff ff       	callq  102d16 <__inbyte>
  102e74:	84 c0                	test   %al,%al
  102e76:	78 f2                	js     102e6a <ata_write_sector+0x14>
  102e78:	8b 45 e4             	mov    -0x1c(%rbp),%eax
  102e7b:	c1 e8 18             	shr    $0x18,%eax
  102e7e:	83 e0 0f             	and    $0xf,%eax
  102e81:	83 c8 e0             	or     $0xffffffe0,%eax
  102e84:	0f b6 c0             	movzbl %al,%eax
  102e87:	89 c6                	mov    %eax,%esi
  102e89:	bf f6 01 00 00       	mov    $0x1f6,%edi
  102e8e:	e8 a7 fe ff ff       	callq  102d3a <__outbyte>
  102e93:	be 01 00 00 00       	mov    $0x1,%esi
  102e98:	bf f2 01 00 00       	mov    $0x1f2,%edi
  102e9d:	e8 98 fe ff ff       	callq  102d3a <__outbyte>
  102ea2:	8b 45 e4             	mov    -0x1c(%rbp),%eax
  102ea5:	0f b6 c0             	movzbl %al,%eax
  102ea8:	89 c6                	mov    %eax,%esi
  102eaa:	bf f3 01 00 00       	mov    $0x1f3,%edi
  102eaf:	e8 86 fe ff ff       	callq  102d3a <__outbyte>
  102eb4:	8b 45 e4             	mov    -0x1c(%rbp),%eax
  102eb7:	c1 e8 08             	shr    $0x8,%eax
  102eba:	0f b6 c0             	movzbl %al,%eax
  102ebd:	89 c6                	mov    %eax,%esi
  102ebf:	bf f4 01 00 00       	mov    $0x1f4,%edi
  102ec4:	e8 71 fe ff ff       	callq  102d3a <__outbyte>
  102ec9:	8b 45 e4             	mov    -0x1c(%rbp),%eax
  102ecc:	c1 e8 10             	shr    $0x10,%eax
  102ecf:	0f b6 c0             	movzbl %al,%eax
  102ed2:	89 c6                	mov    %eax,%esi
  102ed4:	bf f5 01 00 00       	mov    $0x1f5,%edi
  102ed9:	e8 5c fe ff ff       	callq  102d3a <__outbyte>
  102ede:	be 30 00 00 00       	mov    $0x30,%esi
  102ee3:	bf f7 01 00 00       	mov    $0x1f7,%edi
  102ee8:	e8 4d fe ff ff       	callq  102d3a <__outbyte>
  102eed:	90                   	nop
  102eee:	bf f7 01 00 00       	mov    $0x1f7,%edi
  102ef3:	e8 1e fe ff ff       	callq  102d16 <__inbyte>
  102ef8:	84 c0                	test   %al,%al
  102efa:	78 f2                	js     102eee <ata_write_sector+0x98>
  102efc:	90                   	nop
  102efd:	bf f7 01 00 00       	mov    $0x1f7,%edi
  102f02:	e8 0f fe ff ff       	callq  102d16 <__inbyte>
  102f07:	0f b6 c0             	movzbl %al,%eax
  102f0a:	83 e0 08             	and    $0x8,%eax
  102f0d:	85 c0                	test   %eax,%eax
  102f0f:	74 ec                	je     102efd <ata_write_sector+0xa7>
  102f11:	48 8b 45 d8          	mov    -0x28(%rbp),%rax
  102f15:	48 89 45 f0          	mov    %rax,-0x10(%rbp)
  102f19:	c7 45 fc 00 00 00 00 	movl   $0x0,-0x4(%rbp)
  102f20:	eb 22                	jmp    102f44 <ata_write_sector+0xee>
  102f22:	8b 45 fc             	mov    -0x4(%rbp),%eax
  102f25:	48 98                	cltq   
  102f27:	48 01 c0             	add    %rax,%rax
  102f2a:	48 03 45 f0          	add    -0x10(%rbp),%rax
  102f2e:	0f b7 00             	movzwl (%rax),%eax
  102f31:	0f b7 c0             	movzwl %ax,%eax
  102f34:	89 c6                	mov    %eax,%esi
  102f36:	bf f0 01 00 00       	mov    $0x1f0,%edi
  102f3b:	e8 ba fd ff ff       	callq  102cfa <__outword>
  102f40:	83 45 fc 01          	addl   $0x1,-0x4(%rbp)
  102f44:	81 7d fc ff 00 00 00 	cmpl   $0xff,-0x4(%rbp)
  102f4b:	7e d5                	jle    102f22 <ata_write_sector+0xcc>
  102f4d:	b8 01 00 00 00       	mov    $0x1,%eax
  102f52:	c9                   	leaveq 
  102f53:	c3                   	retq   

0000000000102f54 <ata_init_primary>:
  102f54:	55                   	push   %rbp
  102f55:	48 89 e5             	mov    %rsp,%rbp
  102f58:	48 c7 05 1d 52 00 00 	movq   $0x102d54,0x521d(%rip)        # 108180 <ata0_dev>
  102f5f:	54 2d 10 00 
  102f63:	48 c7 05 1a 52 00 00 	movq   $0x102e56,0x521a(%rip)        # 108188 <ata0_dev+0x8>
  102f6a:	56 2e 10 00 
  102f6e:	48 c7 05 17 52 00 00 	movq   $0x0,0x5217(%rip)        # 108190 <ata0_dev+0x10>
  102f75:	00 00 00 00 
  102f79:	bf 80 81 10 00       	mov    $0x108180,%edi
  102f7e:	e8 05 00 00 00       	callq  102f88 <register_block_device>
  102f83:	5d                   	pop    %rbp
  102f84:	c3                   	retq   
  102f85:	00 00                	add    %al,(%rax)
	...

0000000000102f88 <register_block_device>:
  102f88:	55                   	push   %rbp
  102f89:	48 89 e5             	mov    %rsp,%rbp
  102f8c:	48 83 ec 10          	sub    $0x10,%rsp
  102f90:	48 89 7d f8          	mov    %rdi,-0x8(%rbp)
  102f94:	48 8b 45 f8          	mov    -0x8(%rbp),%rax
  102f98:	89 c2                	mov    %eax,%edx
  102f9a:	8b 05 20 52 00 00    	mov    0x5220(%rip),%eax        # 1081c0 <device_count>
  102fa0:	89 d1                	mov    %edx,%ecx
  102fa2:	89 c2                	mov    %eax,%edx
  102fa4:	be 38 6a 10 00       	mov    $0x106a38,%esi
  102fa9:	bf 0e 00 00 00       	mov    $0xe,%edi
  102fae:	b8 00 00 00 00       	mov    $0x0,%eax
  102fb3:	e8 ec d7 ff ff       	callq  1007a4 <myos_printf>
  102fb8:	8b 05 02 52 00 00    	mov    0x5202(%rip),%eax        # 1081c0 <device_count>
  102fbe:	83 f8 03             	cmp    $0x3,%eax
  102fc1:	7f 20                	jg     102fe3 <register_block_device+0x5b>
  102fc3:	8b 05 f7 51 00 00    	mov    0x51f7(%rip),%eax        # 1081c0 <device_count>
  102fc9:	48 63 d0             	movslq %eax,%rdx
  102fcc:	48 8b 4d f8          	mov    -0x8(%rbp),%rcx
  102fd0:	48 89 0c d5 a0 81 10 	mov    %rcx,0x1081a0(,%rdx,8)
  102fd7:	00 
  102fd8:	83 c0 01             	add    $0x1,%eax
  102fdb:	89 05 df 51 00 00    	mov    %eax,0x51df(%rip)        # 1081c0 <device_count>
  102fe1:	eb 19                	jmp    102ffc <register_block_device+0x74>
  102fe3:	b9 00 00 00 00       	mov    $0x0,%ecx
  102fe8:	ba 00 00 00 00       	mov    $0x0,%edx
  102fed:	be 20 04 00 00       	mov    $0x420,%esi
  102ff2:	bf 00 00 00 00       	mov    $0x0,%edi
  102ff7:	e8 52 f7 ff ff       	callq  10274e <bugcheck_system>
  102ffc:	c9                   	leaveq 
  102ffd:	c3                   	retq   

0000000000102ffe <get_block_device>:
  102ffe:	55                   	push   %rbp
  102fff:	48 89 e5             	mov    %rsp,%rbp
  103002:	89 7d fc             	mov    %edi,-0x4(%rbp)
  103005:	83 7d fc 00          	cmpl   $0x0,-0x4(%rbp)
  103009:	78 0b                	js     103016 <get_block_device+0x18>
  10300b:	8b 05 af 51 00 00    	mov    0x51af(%rip),%eax        # 1081c0 <device_count>
  103011:	39 45 fc             	cmp    %eax,-0x4(%rbp)
  103014:	7c 07                	jl     10301d <get_block_device+0x1f>
  103016:	b8 00 00 00 00       	mov    $0x0,%eax
  10301b:	eb 0d                	jmp    10302a <get_block_device+0x2c>
  10301d:	8b 45 fc             	mov    -0x4(%rbp),%eax
  103020:	48 98                	cltq   
  103022:	48 8b 04 c5 a0 81 10 	mov    0x1081a0(,%rax,8),%rax
  103029:	00 
  10302a:	5d                   	pop    %rbp
  10302b:	c3                   	retq   

000000000010302c <read_sector>:
  10302c:	55                   	push   %rbp
  10302d:	48 89 e5             	mov    %rsp,%rbp
  103030:	48 83 ec 10          	sub    $0x10,%rsp
  103034:	89 7d fc             	mov    %edi,-0x4(%rbp)
  103037:	48 89 75 f0          	mov    %rsi,-0x10(%rbp)
  10303b:	48 8b 05 fe 51 00 00 	mov    0x51fe(%rip),%rax        # 108240 <disk>
  103042:	4c 8b 00             	mov    (%rax),%r8
  103045:	48 8b 05 f4 51 00 00 	mov    0x51f4(%rip),%rax        # 108240 <disk>
  10304c:	48 8b 55 f0          	mov    -0x10(%rbp),%rdx
  103050:	8b 4d fc             	mov    -0x4(%rbp),%ecx
  103053:	89 ce                	mov    %ecx,%esi
  103055:	48 89 c7             	mov    %rax,%rdi
  103058:	41 ff d0             	callq  *%r8
  10305b:	c9                   	leaveq 
  10305c:	c3                   	retq   

000000000010305d <fat32_read_fat>:
  10305d:	55                   	push   %rbp
  10305e:	48 89 e5             	mov    %rsp,%rbp
  103061:	48 83 ec 20          	sub    $0x20,%rsp
  103065:	89 7d ec             	mov    %edi,-0x14(%rbp)
  103068:	8b 45 ec             	mov    -0x14(%rbp),%eax
  10306b:	c1 e0 02             	shl    $0x2,%eax
  10306e:	89 45 fc             	mov    %eax,-0x4(%rbp)
  103071:	8b 0d bd 51 00 00    	mov    0x51bd(%rip),%ecx        # 108234 <fs+0x14>
  103077:	8b 15 af 51 00 00    	mov    0x51af(%rip),%edx        # 10822c <fs+0xc>
  10307d:	89 55 e8             	mov    %edx,-0x18(%rbp)
  103080:	8b 45 fc             	mov    -0x4(%rbp),%eax
  103083:	ba 00 00 00 00       	mov    $0x0,%edx
  103088:	f7 75 e8             	divl   -0x18(%rbp)
  10308b:	01 c8                	add    %ecx,%eax
  10308d:	89 45 f8             	mov    %eax,-0x8(%rbp)
  103090:	8b 0d 96 51 00 00    	mov    0x5196(%rip),%ecx        # 10822c <fs+0xc>
  103096:	8b 45 fc             	mov    -0x4(%rbp),%eax
  103099:	ba 00 00 00 00       	mov    $0x0,%edx
  10309e:	f7 f1                	div    %ecx
  1030a0:	89 55 f4             	mov    %edx,-0xc(%rbp)
  1030a3:	8b 45 f4             	mov    -0xc(%rbp),%eax
  1030a6:	48 8d 55 f0          	lea    -0x10(%rbp),%rdx
  1030aa:	48 01 c2             	add    %rax,%rdx
  1030ad:	8b 45 f8             	mov    -0x8(%rbp),%eax
  1030b0:	48 89 d6             	mov    %rdx,%rsi
  1030b3:	89 c7                	mov    %eax,%edi
  1030b5:	e8 72 ff ff ff       	callq  10302c <read_sector>
  1030ba:	8b 45 f0             	mov    -0x10(%rbp),%eax
  1030bd:	25 ff ff ff 0f       	and    $0xfffffff,%eax
  1030c2:	c9                   	leaveq 
  1030c3:	c3                   	retq   

00000000001030c4 <first_sector_of_cluster>:
  1030c4:	55                   	push   %rbp
  1030c5:	48 89 e5             	mov    %rsp,%rbp
  1030c8:	89 7d fc             	mov    %edi,-0x4(%rbp)
  1030cb:	8b 15 4f 51 00 00    	mov    0x514f(%rip),%edx        # 108220 <fs>
  1030d1:	8b 45 fc             	mov    -0x4(%rbp),%eax
  1030d4:	8d 48 fe             	lea    -0x2(%rax),%ecx
  1030d7:	8b 05 53 51 00 00    	mov    0x5153(%rip),%eax        # 108230 <fs+0x10>
  1030dd:	0f af c1             	imul   %ecx,%eax
  1030e0:	01 d0                	add    %edx,%eax
  1030e2:	5d                   	pop    %rbp
  1030e3:	c3                   	retq   

00000000001030e4 <fat32_init>:
  1030e4:	55                   	push   %rbp
  1030e5:	48 89 e5             	mov    %rsp,%rbp
  1030e8:	48 81 ec 10 02 00 00 	sub    $0x210,%rsp
  1030ef:	89 bd fc fd ff ff    	mov    %edi,-0x204(%rbp)
  1030f5:	8b 85 fc fd ff ff    	mov    -0x204(%rbp),%eax
  1030fb:	89 c7                	mov    %eax,%edi
  1030fd:	e8 fc fe ff ff       	callq  102ffe <get_block_device>
  103102:	48 89 05 37 51 00 00 	mov    %rax,0x5137(%rip)        # 108240 <disk>
  103109:	48 8b 05 30 51 00 00 	mov    0x5130(%rip),%rax        # 108240 <disk>
  103110:	48 85 c0             	test   %rax,%rax
  103113:	75 0a                	jne    10311f <fat32_init+0x3b>
  103115:	b8 00 00 00 00       	mov    $0x0,%eax
  10311a:	e9 ba 00 00 00       	jmpq   1031d9 <fat32_init+0xf5>
  10311f:	48 8d 85 00 fe ff ff 	lea    -0x200(%rbp),%rax
  103126:	48 89 c6             	mov    %rax,%rsi
  103129:	bf 00 00 00 00       	mov    $0x0,%edi
  10312e:	e8 f9 fe ff ff       	callq  10302c <read_sector>
  103133:	83 f0 01             	xor    $0x1,%eax
  103136:	84 c0                	test   %al,%al
  103138:	74 0a                	je     103144 <fat32_init+0x60>
  10313a:	b8 00 00 00 00       	mov    $0x0,%eax
  10313f:	e9 95 00 00 00       	jmpq   1031d9 <fat32_init+0xf5>
  103144:	48 8d 85 00 fe ff ff 	lea    -0x200(%rbp),%rax
  10314b:	ba 34 00 00 00       	mov    $0x34,%edx
  103150:	48 89 c6             	mov    %rax,%rsi
  103153:	bf e0 81 10 00       	mov    $0x1081e0,%edi
  103158:	e8 2b e9 ff ff       	callq  101a88 <kmemcpy>
  10315d:	0f b7 05 87 50 00 00 	movzwl 0x5087(%rip),%eax        # 1081eb <bpb+0xb>
  103164:	0f b7 c0             	movzwl %ax,%eax
  103167:	89 05 bf 50 00 00    	mov    %eax,0x50bf(%rip)        # 10822c <fs+0xc>
  10316d:	0f b6 05 79 50 00 00 	movzbl 0x5079(%rip),%eax        # 1081ed <bpb+0xd>
  103174:	0f b6 c0             	movzbl %al,%eax
  103177:	89 05 b3 50 00 00    	mov    %eax,0x50b3(%rip)        # 108230 <fs+0x10>
  10317d:	0f b7 05 6a 50 00 00 	movzwl 0x506a(%rip),%eax        # 1081ee <bpb+0xe>
  103184:	66 89 05 ad 50 00 00 	mov    %ax,0x50ad(%rip)        # 108238 <fs+0x18>
  10318b:	8b 05 73 50 00 00    	mov    0x5073(%rip),%eax        # 108204 <bpb+0x24>
  103191:	89 05 91 50 00 00    	mov    %eax,0x5091(%rip)        # 108228 <fs+0x8>
  103197:	8b 05 6f 50 00 00    	mov    0x506f(%rip),%eax        # 10820c <bpb+0x2c>
  10319d:	89 05 81 50 00 00    	mov    %eax,0x5081(%rip)        # 108224 <fs+0x4>
  1031a3:	0f b7 05 44 50 00 00 	movzwl 0x5044(%rip),%eax        # 1081ee <bpb+0xe>
  1031aa:	0f b7 c0             	movzwl %ax,%eax
  1031ad:	89 05 81 50 00 00    	mov    %eax,0x5081(%rip)        # 108234 <fs+0x14>
  1031b3:	8b 15 7b 50 00 00    	mov    0x507b(%rip),%edx        # 108234 <fs+0x14>
  1031b9:	0f b6 05 30 50 00 00 	movzbl 0x5030(%rip),%eax        # 1081f0 <bpb+0x10>
  1031c0:	0f b6 c8             	movzbl %al,%ecx
  1031c3:	8b 05 5f 50 00 00    	mov    0x505f(%rip),%eax        # 108228 <fs+0x8>
  1031c9:	0f af c1             	imul   %ecx,%eax
  1031cc:	01 d0                	add    %edx,%eax
  1031ce:	89 05 4c 50 00 00    	mov    %eax,0x504c(%rip)        # 108220 <fs>
  1031d4:	b8 01 00 00 00       	mov    $0x1,%eax
  1031d9:	c9                   	leaveq 
  1031da:	c3                   	retq   

00000000001031db <toupper>:
  1031db:	55                   	push   %rbp
  1031dc:	48 89 e5             	mov    %rsp,%rbp
  1031df:	89 7d fc             	mov    %edi,-0x4(%rbp)
  1031e2:	83 7d fc 60          	cmpl   $0x60,-0x4(%rbp)
  1031e6:	7e 0e                	jle    1031f6 <toupper+0x1b>
  1031e8:	83 7d fc 7a          	cmpl   $0x7a,-0x4(%rbp)
  1031ec:	7f 08                	jg     1031f6 <toupper+0x1b>
  1031ee:	8b 45 fc             	mov    -0x4(%rbp),%eax
  1031f1:	83 e8 20             	sub    $0x20,%eax
  1031f4:	eb 03                	jmp    1031f9 <toupper+0x1e>
  1031f6:	8b 45 fc             	mov    -0x4(%rbp),%eax
  1031f9:	5d                   	pop    %rbp
  1031fa:	c3                   	retq   

00000000001031fb <cmp_name>:
  1031fb:	55                   	push   %rbp
  1031fc:	48 89 e5             	mov    %rsp,%rbp
  1031ff:	53                   	push   %rbx
  103200:	48 83 ec 30          	sub    $0x30,%rsp
  103204:	48 89 7d d0          	mov    %rdi,-0x30(%rbp)
  103208:	48 89 75 c8          	mov    %rsi,-0x38(%rbp)
  10320c:	48 c7 45 d8 00 00 00 	movq   $0x0,-0x28(%rbp)
  103213:	00 
  103214:	c7 45 e0 00 00 00 00 	movl   $0x0,-0x20(%rbp)
  10321b:	c7 45 f4 00 00 00 00 	movl   $0x0,-0xc(%rbp)
  103222:	eb 19                	jmp    10323d <cmp_name+0x42>
  103224:	8b 45 f4             	mov    -0xc(%rbp),%eax
  103227:	48 98                	cltq   
  103229:	48 03 45 d0          	add    -0x30(%rbp),%rax
  10322d:	0f b6 10             	movzbl (%rax),%edx
  103230:	8b 45 f4             	mov    -0xc(%rbp),%eax
  103233:	48 98                	cltq   
  103235:	88 54 05 d8          	mov    %dl,-0x28(%rbp,%rax,1)
  103239:	83 45 f4 01          	addl   $0x1,-0xc(%rbp)
  10323d:	83 7d f4 0a          	cmpl   $0xa,-0xc(%rbp)
  103241:	7e e1                	jle    103224 <cmp_name+0x29>
  103243:	c7 45 f0 00 00 00 00 	movl   $0x0,-0x10(%rbp)
  10324a:	eb 3b                	jmp    103287 <cmp_name+0x8c>
  10324c:	8b 45 f0             	mov    -0x10(%rbp),%eax
  10324f:	48 98                	cltq   
  103251:	0f b6 44 05 d8       	movzbl -0x28(%rbp,%rax,1),%eax
  103256:	0f be c0             	movsbl %al,%eax
  103259:	89 c7                	mov    %eax,%edi
  10325b:	e8 7b ff ff ff       	callq  1031db <toupper>
  103260:	89 c3                	mov    %eax,%ebx
  103262:	8b 45 f0             	mov    -0x10(%rbp),%eax
  103265:	48 98                	cltq   
  103267:	48 03 45 c8          	add    -0x38(%rbp),%rax
  10326b:	0f b6 00             	movzbl (%rax),%eax
  10326e:	0f be c0             	movsbl %al,%eax
  103271:	89 c7                	mov    %eax,%edi
  103273:	e8 63 ff ff ff       	callq  1031db <toupper>
  103278:	39 c3                	cmp    %eax,%ebx
  10327a:	74 07                	je     103283 <cmp_name+0x88>
  10327c:	b8 00 00 00 00       	mov    $0x0,%eax
  103281:	eb 0f                	jmp    103292 <cmp_name+0x97>
  103283:	83 45 f0 01          	addl   $0x1,-0x10(%rbp)
  103287:	83 7d f0 0a          	cmpl   $0xa,-0x10(%rbp)
  10328b:	7e bf                	jle    10324c <cmp_name+0x51>
  10328d:	b8 01 00 00 00       	mov    $0x1,%eax
  103292:	48 83 c4 30          	add    $0x30,%rsp
  103296:	5b                   	pop    %rbx
  103297:	5d                   	pop    %rbp
  103298:	c3                   	retq   

0000000000103299 <fat32_list_root>:
  103299:	55                   	push   %rbp
  10329a:	48 89 e5             	mov    %rsp,%rbp
  10329d:	48 81 ec 20 02 00 00 	sub    $0x220,%rsp
  1032a4:	8b 05 7a 4f 00 00    	mov    0x4f7a(%rip),%eax        # 108224 <fs+0x4>
  1032aa:	89 45 fc             	mov    %eax,-0x4(%rbp)
  1032ad:	8b 45 fc             	mov    -0x4(%rbp),%eax
  1032b0:	89 c7                	mov    %eax,%edi
  1032b2:	e8 0d fe ff ff       	callq  1030c4 <first_sector_of_cluster>
  1032b7:	89 45 e4             	mov    %eax,-0x1c(%rbp)
  1032ba:	c7 45 f8 00 00 00 00 	movl   $0x0,-0x8(%rbp)
  1032c1:	e9 e5 00 00 00       	jmpq   1033ab <fat32_list_root+0x112>
  1032c6:	8b 45 f8             	mov    -0x8(%rbp),%eax
  1032c9:	8b 55 e4             	mov    -0x1c(%rbp),%edx
  1032cc:	01 c2                	add    %eax,%edx
  1032ce:	48 8d 85 e0 fd ff ff 	lea    -0x220(%rbp),%rax
  1032d5:	48 89 c6             	mov    %rax,%rsi
  1032d8:	89 d7                	mov    %edx,%edi
  1032da:	e8 4d fd ff ff       	callq  10302c <read_sector>
  1032df:	83 f0 01             	xor    $0x1,%eax
  1032e2:	84 c0                	test   %al,%al
  1032e4:	0f 85 ec 00 00 00    	jne    1033d6 <fat32_list_root+0x13d>
  1032ea:	48 8d 85 e0 fd ff ff 	lea    -0x220(%rbp),%rax
  1032f1:	48 89 45 f0          	mov    %rax,-0x10(%rbp)
  1032f5:	c7 45 ec 00 00 00 00 	movl   $0x0,-0x14(%rbp)
  1032fc:	e9 94 00 00 00       	jmpq   103395 <fat32_list_root+0xfc>
  103301:	48 8b 45 f0          	mov    -0x10(%rbp),%rax
  103305:	0f b6 00             	movzbl (%rax),%eax
  103308:	84 c0                	test   %al,%al
  10330a:	0f 84 c9 00 00 00    	je     1033d9 <fat32_list_root+0x140>
  103310:	48 8b 45 f0          	mov    -0x10(%rbp),%rax
  103314:	0f b6 00             	movzbl (%rax),%eax
  103317:	3c e5                	cmp    $0xe5,%al
  103319:	74 6d                	je     103388 <fat32_list_root+0xef>
  10331b:	48 8b 45 f0          	mov    -0x10(%rbp),%rax
  10331f:	0f b6 40 0b          	movzbl 0xb(%rax),%eax
  103323:	3c 0f                	cmp    $0xf,%al
  103325:	74 64                	je     10338b <fat32_list_root+0xf2>
  103327:	be 03 00 00 00       	mov    $0x3,%esi
  10332c:	bf 58 6d 10 00       	mov    $0x106d58,%edi
  103331:	b8 00 00 00 00       	mov    $0x0,%eax
  103336:	e8 26 cf ff ff       	callq  100261 <print_to_screen>
  10333b:	c7 45 e8 00 00 00 00 	movl   $0x0,-0x18(%rbp)
  103342:	eb 28                	jmp    10336c <fat32_list_root+0xd3>
  103344:	48 8b 55 f0          	mov    -0x10(%rbp),%rdx
  103348:	8b 45 e8             	mov    -0x18(%rbp),%eax
  10334b:	0f b6 04 02          	movzbl (%rdx,%rax,1),%eax
  10334f:	0f be c0             	movsbl %al,%eax
  103352:	89 c2                	mov    %eax,%edx
  103354:	be 60 6d 10 00       	mov    $0x106d60,%esi
  103359:	bf 07 00 00 00       	mov    $0x7,%edi
  10335e:	b8 00 00 00 00       	mov    $0x0,%eax
  103363:	e8 3c d4 ff ff       	callq  1007a4 <myos_printf>
  103368:	83 45 e8 01          	addl   $0x1,-0x18(%rbp)
  10336c:	83 7d e8 0a          	cmpl   $0xa,-0x18(%rbp)
  103370:	76 d2                	jbe    103344 <fat32_list_root+0xab>
  103372:	be 03 00 00 00       	mov    $0x3,%esi
  103377:	bf 63 6d 10 00       	mov    $0x106d63,%edi
  10337c:	b8 00 00 00 00       	mov    $0x0,%eax
  103381:	e8 db ce ff ff       	callq  100261 <print_to_screen>
  103386:	eb 04                	jmp    10338c <fat32_list_root+0xf3>
  103388:	90                   	nop
  103389:	eb 01                	jmp    10338c <fat32_list_root+0xf3>
  10338b:	90                   	nop
  10338c:	83 45 ec 01          	addl   $0x1,-0x14(%rbp)
  103390:	48 83 45 f0 20       	addq   $0x20,-0x10(%rbp)
  103395:	8b 05 91 4e 00 00    	mov    0x4e91(%rip),%eax        # 10822c <fs+0xc>
  10339b:	c1 e8 05             	shr    $0x5,%eax
  10339e:	3b 45 ec             	cmp    -0x14(%rbp),%eax
  1033a1:	0f 87 5a ff ff ff    	ja     103301 <fat32_list_root+0x68>
  1033a7:	83 45 f8 01          	addl   $0x1,-0x8(%rbp)
  1033ab:	8b 05 7f 4e 00 00    	mov    0x4e7f(%rip),%eax        # 108230 <fs+0x10>
  1033b1:	3b 45 f8             	cmp    -0x8(%rbp),%eax
  1033b4:	0f 87 0c ff ff ff    	ja     1032c6 <fat32_list_root+0x2d>
  1033ba:	8b 45 fc             	mov    -0x4(%rbp),%eax
  1033bd:	89 c7                	mov    %eax,%edi
  1033bf:	e8 99 fc ff ff       	callq  10305d <fat32_read_fat>
  1033c4:	89 45 fc             	mov    %eax,-0x4(%rbp)
  1033c7:	81 7d fc f7 ff ff 0f 	cmpl   $0xffffff7,-0x4(%rbp)
  1033ce:	0f 86 d9 fe ff ff    	jbe    1032ad <fat32_list_root+0x14>
  1033d4:	eb 04                	jmp    1033da <fat32_list_root+0x141>
  1033d6:	90                   	nop
  1033d7:	eb 01                	jmp    1033da <fat32_list_root+0x141>
  1033d9:	90                   	nop
  1033da:	c9                   	leaveq 
  1033db:	c3                   	retq   

00000000001033dc <fat32_read_file>:
  1033dc:	55                   	push   %rbp
  1033dd:	48 89 e5             	mov    %rsp,%rbp
  1033e0:	48 81 ec 60 04 00 00 	sub    $0x460,%rsp
  1033e7:	48 89 bd b8 fb ff ff 	mov    %rdi,-0x448(%rbp)
  1033ee:	48 89 b5 b0 fb ff ff 	mov    %rsi,-0x450(%rbp)
  1033f5:	89 95 ac fb ff ff    	mov    %edx,-0x454(%rbp)
  1033fb:	8b 05 23 4e 00 00    	mov    0x4e23(%rip),%eax        # 108224 <fs+0x4>
  103401:	89 45 fc             	mov    %eax,-0x4(%rbp)
  103404:	8b 45 fc             	mov    -0x4(%rbp),%eax
  103407:	89 c7                	mov    %eax,%edi
  103409:	e8 b6 fc ff ff       	callq  1030c4 <first_sector_of_cluster>
  10340e:	89 45 c8             	mov    %eax,-0x38(%rbp)
  103411:	c7 45 f8 00 00 00 00 	movl   $0x0,-0x8(%rbp)
  103418:	e9 dd 01 00 00       	jmpq   1035fa <fat32_read_file+0x21e>
  10341d:	8b 45 f8             	mov    -0x8(%rbp),%eax
  103420:	8b 55 c8             	mov    -0x38(%rbp),%edx
  103423:	01 c2                	add    %eax,%edx
  103425:	48 8d 85 c0 fb ff ff 	lea    -0x440(%rbp),%rax
  10342c:	48 89 c6             	mov    %rax,%rsi
  10342f:	89 d7                	mov    %edx,%edi
  103431:	e8 f6 fb ff ff       	callq  10302c <read_sector>
  103436:	83 f0 01             	xor    $0x1,%eax
  103439:	84 c0                	test   %al,%al
  10343b:	74 0a                	je     103447 <fat32_read_file+0x6b>
  10343d:	b8 00 00 00 00       	mov    $0x0,%eax
  103442:	e9 e1 01 00 00       	jmpq   103628 <fat32_read_file+0x24c>
  103447:	48 8d 85 c0 fb ff ff 	lea    -0x440(%rbp),%rax
  10344e:	48 89 45 f0          	mov    %rax,-0x10(%rbp)
  103452:	c7 45 ec 00 00 00 00 	movl   $0x0,-0x14(%rbp)
  103459:	e9 86 01 00 00       	jmpq   1035e4 <fat32_read_file+0x208>
  10345e:	48 8b 45 f0          	mov    -0x10(%rbp),%rax
  103462:	0f b6 00             	movzbl (%rax),%eax
  103465:	84 c0                	test   %al,%al
  103467:	75 0a                	jne    103473 <fat32_read_file+0x97>
  103469:	b8 00 00 00 00       	mov    $0x0,%eax
  10346e:	e9 b5 01 00 00       	jmpq   103628 <fat32_read_file+0x24c>
  103473:	48 8b 45 f0          	mov    -0x10(%rbp),%rax
  103477:	0f b6 40 0b          	movzbl 0xb(%rax),%eax
  10347b:	3c 0f                	cmp    $0xf,%al
  10347d:	0f 84 57 01 00 00    	je     1035da <fat32_read_file+0x1fe>
  103483:	48 8b 45 f0          	mov    -0x10(%rbp),%rax
  103487:	48 8b 95 b8 fb ff ff 	mov    -0x448(%rbp),%rdx
  10348e:	48 89 d6             	mov    %rdx,%rsi
  103491:	48 89 c7             	mov    %rax,%rdi
  103494:	e8 62 fd ff ff       	callq  1031fb <cmp_name>
  103499:	84 c0                	test   %al,%al
  10349b:	0f 84 3a 01 00 00    	je     1035db <fat32_read_file+0x1ff>
  1034a1:	48 8b 45 f0          	mov    -0x10(%rbp),%rax
  1034a5:	0f b7 40 14          	movzwl 0x14(%rax),%eax
  1034a9:	0f b7 c0             	movzwl %ax,%eax
  1034ac:	89 c2                	mov    %eax,%edx
  1034ae:	c1 e2 10             	shl    $0x10,%edx
  1034b1:	48 8b 45 f0          	mov    -0x10(%rbp),%rax
  1034b5:	0f b7 40 1a          	movzwl 0x1a(%rax),%eax
  1034b9:	0f b7 c0             	movzwl %ax,%eax
  1034bc:	09 d0                	or     %edx,%eax
  1034be:	89 45 e8             	mov    %eax,-0x18(%rbp)
  1034c1:	48 8b 45 f0          	mov    -0x10(%rbp),%rax
  1034c5:	8b 40 1c             	mov    0x1c(%rax),%eax
  1034c8:	89 45 e4             	mov    %eax,-0x1c(%rbp)
  1034cb:	48 8b 85 b0 fb ff ff 	mov    -0x450(%rbp),%rax
  1034d2:	48 89 45 d8          	mov    %rax,-0x28(%rbp)
  1034d6:	e9 dc 00 00 00       	jmpq   1035b7 <fat32_read_file+0x1db>
  1034db:	8b 45 e8             	mov    -0x18(%rbp),%eax
  1034de:	89 c7                	mov    %eax,%edi
  1034e0:	e8 df fb ff ff       	callq  1030c4 <first_sector_of_cluster>
  1034e5:	89 45 c4             	mov    %eax,-0x3c(%rbp)
  1034e8:	c7 45 d4 00 00 00 00 	movl   $0x0,-0x2c(%rbp)
  1034ef:	e9 98 00 00 00       	jmpq   10358c <fat32_read_file+0x1b0>
  1034f4:	8b 45 d4             	mov    -0x2c(%rbp),%eax
  1034f7:	8b 55 c4             	mov    -0x3c(%rbp),%edx
  1034fa:	01 c2                	add    %eax,%edx
  1034fc:	48 8d 85 c0 fd ff ff 	lea    -0x240(%rbp),%rax
  103503:	48 89 c6             	mov    %rax,%rsi
  103506:	89 d7                	mov    %edx,%edi
  103508:	e8 1f fb ff ff       	callq  10302c <read_sector>
  10350d:	83 f0 01             	xor    $0x1,%eax
  103510:	84 c0                	test   %al,%al
  103512:	74 0a                	je     10351e <fat32_read_file+0x142>
  103514:	b8 00 00 00 00       	mov    $0x0,%eax
  103519:	e9 0a 01 00 00       	jmpq   103628 <fat32_read_file+0x24c>
  10351e:	8b 05 08 4d 00 00    	mov    0x4d08(%rip),%eax        # 10822c <fs+0xc>
  103524:	89 45 d0             	mov    %eax,-0x30(%rbp)
  103527:	8b 45 d0             	mov    -0x30(%rbp),%eax
  10352a:	3b 45 e4             	cmp    -0x1c(%rbp),%eax
  10352d:	76 06                	jbe    103535 <fat32_read_file+0x159>
  10352f:	8b 45 e4             	mov    -0x1c(%rbp),%eax
  103532:	89 45 d0             	mov    %eax,-0x30(%rbp)
  103535:	8b 45 d0             	mov    -0x30(%rbp),%eax
  103538:	3b 85 ac fb ff ff    	cmp    -0x454(%rbp),%eax
  10353e:	76 09                	jbe    103549 <fat32_read_file+0x16d>
  103540:	8b 85 ac fb ff ff    	mov    -0x454(%rbp),%eax
  103546:	89 45 d0             	mov    %eax,-0x30(%rbp)
  103549:	c7 45 cc 00 00 00 00 	movl   $0x0,-0x34(%rbp)
  103550:	eb 18                	jmp    10356a <fat32_read_file+0x18e>
  103552:	8b 45 cc             	mov    -0x34(%rbp),%eax
  103555:	48 03 45 d8          	add    -0x28(%rbp),%rax
  103559:	8b 55 cc             	mov    -0x34(%rbp),%edx
  10355c:	0f b6 94 15 c0 fd ff 	movzbl -0x240(%rbp,%rdx,1),%edx
  103563:	ff 
  103564:	88 10                	mov    %dl,(%rax)
  103566:	83 45 cc 01          	addl   $0x1,-0x34(%rbp)
  10356a:	8b 45 cc             	mov    -0x34(%rbp),%eax
  10356d:	3b 45 d0             	cmp    -0x30(%rbp),%eax
  103570:	72 e0                	jb     103552 <fat32_read_file+0x176>
  103572:	8b 45 d0             	mov    -0x30(%rbp),%eax
  103575:	48 01 45 d8          	add    %rax,-0x28(%rbp)
  103579:	8b 45 d0             	mov    -0x30(%rbp),%eax
  10357c:	29 45 e4             	sub    %eax,-0x1c(%rbp)
  10357f:	8b 45 d0             	mov    -0x30(%rbp),%eax
  103582:	29 85 ac fb ff ff    	sub    %eax,-0x454(%rbp)
  103588:	83 45 d4 01          	addl   $0x1,-0x2c(%rbp)
  10358c:	8b 05 9e 4c 00 00    	mov    0x4c9e(%rip),%eax        # 108230 <fs+0x10>
  103592:	3b 45 d4             	cmp    -0x2c(%rbp),%eax
  103595:	76 13                	jbe    1035aa <fat32_read_file+0x1ce>
  103597:	83 7d e4 00          	cmpl   $0x0,-0x1c(%rbp)
  10359b:	74 0d                	je     1035aa <fat32_read_file+0x1ce>
  10359d:	83 bd ac fb ff ff 00 	cmpl   $0x0,-0x454(%rbp)
  1035a4:	0f 85 4a ff ff ff    	jne    1034f4 <fat32_read_file+0x118>
  1035aa:	8b 45 e8             	mov    -0x18(%rbp),%eax
  1035ad:	89 c7                	mov    %eax,%edi
  1035af:	e8 a9 fa ff ff       	callq  10305d <fat32_read_fat>
  1035b4:	89 45 e8             	mov    %eax,-0x18(%rbp)
  1035b7:	81 7d e8 f7 ff ff 0f 	cmpl   $0xffffff7,-0x18(%rbp)
  1035be:	77 13                	ja     1035d3 <fat32_read_file+0x1f7>
  1035c0:	83 7d e4 00          	cmpl   $0x0,-0x1c(%rbp)
  1035c4:	74 0d                	je     1035d3 <fat32_read_file+0x1f7>
  1035c6:	83 bd ac fb ff ff 00 	cmpl   $0x0,-0x454(%rbp)
  1035cd:	0f 85 08 ff ff ff    	jne    1034db <fat32_read_file+0xff>
  1035d3:	b8 01 00 00 00       	mov    $0x1,%eax
  1035d8:	eb 4e                	jmp    103628 <fat32_read_file+0x24c>
  1035da:	90                   	nop
  1035db:	83 45 ec 01          	addl   $0x1,-0x14(%rbp)
  1035df:	48 83 45 f0 20       	addq   $0x20,-0x10(%rbp)
  1035e4:	8b 05 42 4c 00 00    	mov    0x4c42(%rip),%eax        # 10822c <fs+0xc>
  1035ea:	c1 e8 05             	shr    $0x5,%eax
  1035ed:	3b 45 ec             	cmp    -0x14(%rbp),%eax
  1035f0:	0f 87 68 fe ff ff    	ja     10345e <fat32_read_file+0x82>
  1035f6:	83 45 f8 01          	addl   $0x1,-0x8(%rbp)
  1035fa:	8b 05 30 4c 00 00    	mov    0x4c30(%rip),%eax        # 108230 <fs+0x10>
  103600:	3b 45 f8             	cmp    -0x8(%rbp),%eax
  103603:	0f 87 14 fe ff ff    	ja     10341d <fat32_read_file+0x41>
  103609:	8b 45 fc             	mov    -0x4(%rbp),%eax
  10360c:	89 c7                	mov    %eax,%edi
  10360e:	e8 4a fa ff ff       	callq  10305d <fat32_read_fat>
  103613:	89 45 fc             	mov    %eax,-0x4(%rbp)
  103616:	81 7d fc f7 ff ff 0f 	cmpl   $0xffffff7,-0x4(%rbp)
  10361d:	0f 86 e1 fd ff ff    	jbe    103404 <fat32_read_file+0x28>
  103623:	b8 00 00 00 00       	mov    $0x0,%eax
  103628:	c9                   	leaveq 
  103629:	c3                   	retq   
	...

000000000010362c <plot_pixel>:
  10362c:	55                   	push   %rbp
  10362d:	48 89 e5             	mov    %rsp,%rbp
  103630:	48 89 7d e8          	mov    %rdi,-0x18(%rbp)
  103634:	89 75 e4             	mov    %esi,-0x1c(%rbp)
  103637:	89 55 e0             	mov    %edx,-0x20(%rbp)
  10363a:	89 4d dc             	mov    %ecx,-0x24(%rbp)
  10363d:	48 8b 45 e8          	mov    -0x18(%rbp),%rax
  103641:	48 8b 00             	mov    (%rax),%rax
  103644:	48 89 45 f8          	mov    %rax,-0x8(%rbp)
  103648:	48 8b 45 e8          	mov    -0x18(%rbp),%rax
  10364c:	8b 40 18             	mov    0x18(%rax),%eax
  10364f:	89 45 f4             	mov    %eax,-0xc(%rbp)
  103652:	8b 45 e0             	mov    -0x20(%rbp),%eax
  103655:	0f af 45 f4          	imul   -0xc(%rbp),%eax
  103659:	03 45 e4             	add    -0x1c(%rbp),%eax
  10365c:	89 c0                	mov    %eax,%eax
  10365e:	48 c1 e0 02          	shl    $0x2,%rax
  103662:	48 03 45 f8          	add    -0x8(%rbp),%rax
  103666:	8b 55 dc             	mov    -0x24(%rbp),%edx
  103669:	89 10                	mov    %edx,(%rax)
  10366b:	5d                   	pop    %rbp
  10366c:	c3                   	retq   

000000000010366d <draw_char>:
  10366d:	55                   	push   %rbp
  10366e:	48 89 e5             	mov    %rsp,%rbp
  103671:	53                   	push   %rbx
  103672:	48 83 ec 38          	sub    $0x38,%rsp
  103676:	48 89 7d d0          	mov    %rdi,-0x30(%rbp)
  10367a:	89 f0                	mov    %esi,%eax
  10367c:	89 55 c8             	mov    %edx,-0x38(%rbp)
  10367f:	89 4d c4             	mov    %ecx,-0x3c(%rbp)
  103682:	44 89 45 c0          	mov    %r8d,-0x40(%rbp)
  103686:	88 45 cc             	mov    %al,-0x34(%rbp)
  103689:	80 7d cc 1f          	cmpb   $0x1f,-0x34(%rbp)
  10368d:	0f 8e 23 01 00 00    	jle    1037b6 <draw_char+0x149>
  103693:	80 7d cc 7f          	cmpb   $0x7f,-0x34(%rbp)
  103697:	0f 84 19 01 00 00    	je     1037b6 <draw_char+0x149>
  10369d:	48 0f be 45 cc       	movsbq -0x34(%rbp),%rax
  1036a2:	48 83 e8 20          	sub    $0x20,%rax
  1036a6:	48 c1 e0 03          	shl    $0x3,%rax
  1036aa:	48 05 80 6d 10 00    	add    $0x106d80,%rax
  1036b0:	48 89 45 e0          	mov    %rax,-0x20(%rbp)
  1036b4:	c7 45 f4 00 00 00 00 	movl   $0x0,-0xc(%rbp)
  1036bb:	e9 ea 00 00 00       	jmpq   1037aa <draw_char+0x13d>
  1036c0:	c7 45 f0 00 00 00 00 	movl   $0x0,-0x10(%rbp)
  1036c7:	e9 d0 00 00 00       	jmpq   10379c <draw_char+0x12f>
  1036cc:	8b 45 f4             	mov    -0xc(%rbp),%eax
  1036cf:	48 98                	cltq   
  1036d1:	48 03 45 e0          	add    -0x20(%rbp),%rax
  1036d5:	0f b6 00             	movzbl (%rax),%eax
  1036d8:	0f b6 d0             	movzbl %al,%edx
  1036db:	8b 45 f0             	mov    -0x10(%rbp),%eax
  1036de:	89 d3                	mov    %edx,%ebx
  1036e0:	89 c1                	mov    %eax,%ecx
  1036e2:	d3 fb                	sar    %cl,%ebx
  1036e4:	89 d8                	mov    %ebx,%eax
  1036e6:	83 e0 01             	and    $0x1,%eax
  1036e9:	84 c0                	test   %al,%al
  1036eb:	0f 84 a7 00 00 00    	je     103798 <draw_char+0x12b>
  1036f1:	c7 45 ec 00 00 00 00 	movl   $0x0,-0x14(%rbp)
  1036f8:	e9 91 00 00 00       	jmpq   10378e <draw_char+0x121>
  1036fd:	f3 0f 2a 45 f4       	cvtsi2ssl -0xc(%rbp),%xmm0
  103702:	f3 0f 10 0d 6e 39 00 	movss  0x396e(%rip),%xmm1        # 107078 <font8x8_basic+0x2f8>
  103709:	00 
  10370a:	f3 0f 59 c8          	mulss  %xmm0,%xmm1
  10370e:	f3 0f 2a 45 ec       	cvtsi2ssl -0x14(%rbp),%xmm0
  103713:	f3 0f 58 c1          	addss  %xmm1,%xmm0
  103717:	f3 48 0f 2c c0       	cvttss2si %xmm0,%rax
  10371c:	03 45 c4             	add    -0x3c(%rbp),%eax
  10371f:	89 45 dc             	mov    %eax,-0x24(%rbp)
  103722:	48 8b 45 d0          	mov    -0x30(%rbp),%rax
  103726:	8b 40 14             	mov    0x14(%rax),%eax
  103729:	3b 45 dc             	cmp    -0x24(%rbp),%eax
  10372c:	76 5b                	jbe    103789 <draw_char+0x11c>
  10372e:	c7 45 e8 00 00 00 00 	movl   $0x0,-0x18(%rbp)
  103735:	eb 4a                	jmp    103781 <draw_char+0x114>
  103737:	f3 0f 2a 45 f0       	cvtsi2ssl -0x10(%rbp),%xmm0
  10373c:	f3 0f 10 0d 34 39 00 	movss  0x3934(%rip),%xmm1        # 107078 <font8x8_basic+0x2f8>
  103743:	00 
  103744:	f3 0f 59 c8          	mulss  %xmm0,%xmm1
  103748:	f3 0f 2a 45 e8       	cvtsi2ssl -0x18(%rbp),%xmm0
  10374d:	f3 0f 58 c1          	addss  %xmm1,%xmm0
  103751:	f3 48 0f 2c c0       	cvttss2si %xmm0,%rax
  103756:	03 45 c8             	add    -0x38(%rbp),%eax
  103759:	89 45 d8             	mov    %eax,-0x28(%rbp)
  10375c:	48 8b 45 d0          	mov    -0x30(%rbp),%rax
  103760:	8b 40 10             	mov    0x10(%rax),%eax
  103763:	3b 45 d8             	cmp    -0x28(%rbp),%eax
  103766:	76 15                	jbe    10377d <draw_char+0x110>
  103768:	8b 4d c0             	mov    -0x40(%rbp),%ecx
  10376b:	8b 55 dc             	mov    -0x24(%rbp),%edx
  10376e:	8b 75 d8             	mov    -0x28(%rbp),%esi
  103771:	48 8b 45 d0          	mov    -0x30(%rbp),%rax
  103775:	48 89 c7             	mov    %rax,%rdi
  103778:	e8 af fe ff ff       	callq  10362c <plot_pixel>
  10377d:	83 45 e8 01          	addl   $0x1,-0x18(%rbp)
  103781:	83 7d e8 01          	cmpl   $0x1,-0x18(%rbp)
  103785:	7e b0                	jle    103737 <draw_char+0xca>
  103787:	eb 01                	jmp    10378a <draw_char+0x11d>
  103789:	90                   	nop
  10378a:	83 45 ec 01          	addl   $0x1,-0x14(%rbp)
  10378e:	83 7d ec 01          	cmpl   $0x1,-0x14(%rbp)
  103792:	0f 8e 65 ff ff ff    	jle    1036fd <draw_char+0x90>
  103798:	83 45 f0 01          	addl   $0x1,-0x10(%rbp)
  10379c:	83 7d f0 07          	cmpl   $0x7,-0x10(%rbp)
  1037a0:	0f 8e 26 ff ff ff    	jle    1036cc <draw_char+0x5f>
  1037a6:	83 45 f4 01          	addl   $0x1,-0xc(%rbp)
  1037aa:	83 7d f4 07          	cmpl   $0x7,-0xc(%rbp)
  1037ae:	0f 8e 0c ff ff ff    	jle    1036c0 <draw_char+0x53>
  1037b4:	eb 01                	jmp    1037b7 <draw_char+0x14a>
  1037b6:	90                   	nop
  1037b7:	48 83 c4 38          	add    $0x38,%rsp
  1037bb:	5b                   	pop    %rbx
  1037bc:	5d                   	pop    %rbp
  1037bd:	c3                   	retq   

00000000001037be <draw_string>:
  1037be:	55                   	push   %rbp
  1037bf:	48 89 e5             	mov    %rsp,%rbp
  1037c2:	48 83 ec 20          	sub    $0x20,%rsp
  1037c6:	48 89 7d f8          	mov    %rdi,-0x8(%rbp)
  1037ca:	48 89 75 f0          	mov    %rsi,-0x10(%rbp)
  1037ce:	89 55 ec             	mov    %edx,-0x14(%rbp)
  1037d1:	89 4d e8             	mov    %ecx,-0x18(%rbp)
  1037d4:	44 89 45 e4          	mov    %r8d,-0x1c(%rbp)
  1037d8:	eb 5f                	jmp    103839 <draw_string+0x7b>
  1037da:	48 8b 45 f0          	mov    -0x10(%rbp),%rax
  1037de:	0f b6 00             	movzbl (%rax),%eax
  1037e1:	0f be f0             	movsbl %al,%esi
  1037e4:	48 83 45 f0 01       	addq   $0x1,-0x10(%rbp)
  1037e9:	8b 7d e4             	mov    -0x1c(%rbp),%edi
  1037ec:	8b 4d e8             	mov    -0x18(%rbp),%ecx
  1037ef:	8b 55 ec             	mov    -0x14(%rbp),%edx
  1037f2:	48 8b 45 f8          	mov    -0x8(%rbp),%rax
  1037f6:	41 89 f8             	mov    %edi,%r8d
  1037f9:	48 89 c7             	mov    %rax,%rdi
  1037fc:	e8 6c fe ff ff       	callq  10366d <draw_char>
  103801:	8b 45 ec             	mov    -0x14(%rbp),%eax
  103804:	48 85 c0             	test   %rax,%rax
  103807:	78 07                	js     103810 <draw_string+0x52>
  103809:	f3 48 0f 2a c0       	cvtsi2ss %rax,%xmm0
  10380e:	eb 15                	jmp    103825 <draw_string+0x67>
  103810:	48 89 c2             	mov    %rax,%rdx
  103813:	48 d1 ea             	shr    %rdx
  103816:	83 e0 01             	and    $0x1,%eax
  103819:	48 09 c2             	or     %rax,%rdx
  10381c:	f3 48 0f 2a c2       	cvtsi2ss %rdx,%xmm0
  103821:	f3 0f 58 c0          	addss  %xmm0,%xmm0
  103825:	f3 0f 10 0d 4f 38 00 	movss  0x384f(%rip),%xmm1        # 10707c <font8x8_basic+0x2fc>
  10382c:	00 
  10382d:	f3 0f 58 c1          	addss  %xmm1,%xmm0
  103831:	f3 48 0f 2c c0       	cvttss2si %xmm0,%rax
  103836:	89 45 ec             	mov    %eax,-0x14(%rbp)
  103839:	48 8b 45 f0          	mov    -0x10(%rbp),%rax
  10383d:	0f b6 00             	movzbl (%rax),%eax
  103840:	84 c0                	test   %al,%al
  103842:	75 96                	jne    1037da <draw_string+0x1c>
  103844:	c9                   	leaveq 
  103845:	c3                   	retq   

0000000000103846 <char_width>:
  103846:	55                   	push   %rbp
  103847:	48 89 e5             	mov    %rsp,%rbp
  10384a:	b8 0c 00 00 00       	mov    $0xc,%eax
  10384f:	5d                   	pop    %rbp
  103850:	c3                   	retq   

0000000000103851 <line_height>:
  103851:	55                   	push   %rbp
  103852:	48 89 e5             	mov    %rsp,%rbp
  103855:	b8 0c 00 00 00       	mov    $0xc,%eax
  10385a:	5d                   	pop    %rbp
  10385b:	c3                   	retq   

000000000010385c <gop_scroll>:
  10385c:	55                   	push   %rbp
  10385d:	48 89 e5             	mov    %rsp,%rbp
  103860:	48 83 ec 40          	sub    $0x40,%rsp
  103864:	48 89 7d c8          	mov    %rdi,-0x38(%rbp)
  103868:	48 8b 45 c8          	mov    -0x38(%rbp),%rax
  10386c:	48 8b 00             	mov    (%rax),%rax
  10386f:	48 89 45 e8          	mov    %rax,-0x18(%rbp)
  103873:	48 8b 45 c8          	mov    -0x38(%rbp),%rax
  103877:	8b 40 18             	mov    0x18(%rax),%eax
  10387a:	89 45 e4             	mov    %eax,-0x1c(%rbp)
  10387d:	48 8b 45 c8          	mov    -0x38(%rbp),%rax
  103881:	8b 40 14             	mov    0x14(%rax),%eax
  103884:	89 45 e0             	mov    %eax,-0x20(%rbp)
  103887:	48 8b 45 c8          	mov    -0x38(%rbp),%rax
  10388b:	8b 40 10             	mov    0x10(%rax),%eax
  10388e:	89 45 dc             	mov    %eax,-0x24(%rbp)
  103891:	b8 00 00 00 00       	mov    $0x0,%eax
  103896:	e8 b6 ff ff ff       	callq  103851 <line_height>
  10389b:	89 45 d8             	mov    %eax,-0x28(%rbp)
  10389e:	c7 45 fc 00 00 00 00 	movl   $0x0,-0x4(%rbp)
  1038a5:	eb 43                	jmp    1038ea <gop_scroll+0x8e>
  1038a7:	8b 45 dc             	mov    -0x24(%rbp),%eax
  1038aa:	8d 14 85 00 00 00 00 	lea    0x0(,%rax,4),%edx
  1038b1:	8b 45 d8             	mov    -0x28(%rbp),%eax
  1038b4:	8b 4d fc             	mov    -0x4(%rbp),%ecx
  1038b7:	01 c8                	add    %ecx,%eax
  1038b9:	0f af 45 e4          	imul   -0x1c(%rbp),%eax
  1038bd:	89 c0                	mov    %eax,%eax
  1038bf:	48 c1 e0 02          	shl    $0x2,%rax
  1038c3:	48 89 c1             	mov    %rax,%rcx
  1038c6:	48 03 4d e8          	add    -0x18(%rbp),%rcx
  1038ca:	8b 45 fc             	mov    -0x4(%rbp),%eax
  1038cd:	0f af 45 e4          	imul   -0x1c(%rbp),%eax
  1038d1:	89 c0                	mov    %eax,%eax
  1038d3:	48 c1 e0 02          	shl    $0x2,%rax
  1038d7:	48 03 45 e8          	add    -0x18(%rbp),%rax
  1038db:	48 89 ce             	mov    %rcx,%rsi
  1038de:	48 89 c7             	mov    %rax,%rdi
  1038e1:	e8 a2 e1 ff ff       	callq  101a88 <kmemcpy>
  1038e6:	83 45 fc 01          	addl   $0x1,-0x4(%rbp)
  1038ea:	8b 45 d8             	mov    -0x28(%rbp),%eax
  1038ed:	8b 55 e0             	mov    -0x20(%rbp),%edx
  1038f0:	89 d1                	mov    %edx,%ecx
  1038f2:	29 c1                	sub    %eax,%ecx
  1038f4:	89 c8                	mov    %ecx,%eax
  1038f6:	3b 45 fc             	cmp    -0x4(%rbp),%eax
  1038f9:	77 ac                	ja     1038a7 <gop_scroll+0x4b>
  1038fb:	8b 45 d8             	mov    -0x28(%rbp),%eax
  1038fe:	8b 55 e0             	mov    -0x20(%rbp),%edx
  103901:	89 d1                	mov    %edx,%ecx
  103903:	29 c1                	sub    %eax,%ecx
  103905:	89 c8                	mov    %ecx,%eax
  103907:	89 45 f8             	mov    %eax,-0x8(%rbp)
  10390a:	eb 33                	jmp    10393f <gop_scroll+0xe3>
  10390c:	c7 45 f4 00 00 00 00 	movl   $0x0,-0xc(%rbp)
  103913:	eb 1e                	jmp    103933 <gop_scroll+0xd7>
  103915:	8b 45 f8             	mov    -0x8(%rbp),%eax
  103918:	0f af 45 e4          	imul   -0x1c(%rbp),%eax
  10391c:	03 45 f4             	add    -0xc(%rbp),%eax
  10391f:	89 c0                	mov    %eax,%eax
  103921:	48 c1 e0 02          	shl    $0x2,%rax
  103925:	48 03 45 e8          	add    -0x18(%rbp),%rax
  103929:	c7 00 00 00 00 00    	movl   $0x0,(%rax)
  10392f:	83 45 f4 01          	addl   $0x1,-0xc(%rbp)
  103933:	8b 45 f4             	mov    -0xc(%rbp),%eax
  103936:	3b 45 dc             	cmp    -0x24(%rbp),%eax
  103939:	72 da                	jb     103915 <gop_scroll+0xb9>
  10393b:	83 45 f8 01          	addl   $0x1,-0x8(%rbp)
  10393f:	8b 45 f8             	mov    -0x8(%rbp),%eax
  103942:	3b 45 e0             	cmp    -0x20(%rbp),%eax
  103945:	72 c5                	jb     10390c <gop_scroll+0xb0>
  103947:	8b 05 ff 48 00 00    	mov    0x48ff(%rip),%eax        # 10824c <cursor_y>
  10394d:	2b 45 d8             	sub    -0x28(%rbp),%eax
  103950:	89 05 f6 48 00 00    	mov    %eax,0x48f6(%rip)        # 10824c <cursor_y>
  103956:	8b 05 f0 48 00 00    	mov    0x48f0(%rip),%eax        # 10824c <cursor_y>
  10395c:	85 c0                	test   %eax,%eax
  10395e:	79 0a                	jns    10396a <gop_scroll+0x10e>
  103960:	c7 05 e2 48 00 00 00 	movl   $0x0,0x48e2(%rip)        # 10824c <cursor_y>
  103967:	00 00 00 
  10396a:	c9                   	leaveq 
  10396b:	c3                   	retq   

000000000010396c <gop_put_char>:
  10396c:	55                   	push   %rbp
  10396d:	48 89 e5             	mov    %rsp,%rbp
  103970:	48 83 ec 10          	sub    $0x10,%rsp
  103974:	48 89 7d f8          	mov    %rdi,-0x8(%rbp)
  103978:	89 f0                	mov    %esi,%eax
  10397a:	89 55 f0             	mov    %edx,-0x10(%rbp)
  10397d:	88 45 f4             	mov    %al,-0xc(%rbp)
  103980:	80 7d f4 0a          	cmpb   $0xa,-0xc(%rbp)
  103984:	75 54                	jne    1039da <gop_put_char+0x6e>
  103986:	c7 05 b8 48 00 00 00 	movl   $0x0,0x48b8(%rip)        # 108248 <cursor_x>
  10398d:	00 00 00 
  103990:	b8 00 00 00 00       	mov    $0x0,%eax
  103995:	e8 b7 fe ff ff       	callq  103851 <line_height>
  10399a:	8b 15 ac 48 00 00    	mov    0x48ac(%rip),%edx        # 10824c <cursor_y>
  1039a0:	01 d0                	add    %edx,%eax
  1039a2:	89 05 a4 48 00 00    	mov    %eax,0x48a4(%rip)        # 10824c <cursor_y>
  1039a8:	b8 00 00 00 00       	mov    $0x0,%eax
  1039ad:	e8 9f fe ff ff       	callq  103851 <line_height>
  1039b2:	8b 15 94 48 00 00    	mov    0x4894(%rip),%edx        # 10824c <cursor_y>
  1039b8:	01 c2                	add    %eax,%edx
  1039ba:	48 8b 45 f8          	mov    -0x8(%rbp),%rax
  1039be:	8b 40 14             	mov    0x14(%rax),%eax
  1039c1:	39 c2                	cmp    %eax,%edx
  1039c3:	0f 86 ca 00 00 00    	jbe    103a93 <gop_put_char+0x127>
  1039c9:	48 8b 45 f8          	mov    -0x8(%rbp),%rax
  1039cd:	48 89 c7             	mov    %rax,%rdi
  1039d0:	e8 87 fe ff ff       	callq  10385c <gop_scroll>
  1039d5:	e9 b9 00 00 00       	jmpq   103a93 <gop_put_char+0x127>
  1039da:	80 7d f4 0d          	cmpb   $0xd,-0xc(%rbp)
  1039de:	75 0f                	jne    1039ef <gop_put_char+0x83>
  1039e0:	c7 05 5e 48 00 00 00 	movl   $0x0,0x485e(%rip)        # 108248 <cursor_x>
  1039e7:	00 00 00 
  1039ea:	e9 a5 00 00 00       	jmpq   103a94 <gop_put_char+0x128>
  1039ef:	8b 0d 57 48 00 00    	mov    0x4857(%rip),%ecx        # 10824c <cursor_y>
  1039f5:	8b 15 4d 48 00 00    	mov    0x484d(%rip),%edx        # 108248 <cursor_x>
  1039fb:	0f be 75 f4          	movsbl -0xc(%rbp),%esi
  1039ff:	8b 7d f0             	mov    -0x10(%rbp),%edi
  103a02:	48 8b 45 f8          	mov    -0x8(%rbp),%rax
  103a06:	41 89 f8             	mov    %edi,%r8d
  103a09:	48 89 c7             	mov    %rax,%rdi
  103a0c:	e8 5c fc ff ff       	callq  10366d <draw_char>
  103a11:	b8 00 00 00 00       	mov    $0x0,%eax
  103a16:	e8 2b fe ff ff       	callq  103846 <char_width>
  103a1b:	8b 15 27 48 00 00    	mov    0x4827(%rip),%edx        # 108248 <cursor_x>
  103a21:	01 d0                	add    %edx,%eax
  103a23:	89 05 1f 48 00 00    	mov    %eax,0x481f(%rip)        # 108248 <cursor_x>
  103a29:	b8 00 00 00 00       	mov    $0x0,%eax
  103a2e:	e8 13 fe ff ff       	callq  103846 <char_width>
  103a33:	8b 15 0f 48 00 00    	mov    0x480f(%rip),%edx        # 108248 <cursor_x>
  103a39:	01 c2                	add    %eax,%edx
  103a3b:	48 8b 45 f8          	mov    -0x8(%rbp),%rax
  103a3f:	8b 40 10             	mov    0x10(%rax),%eax
  103a42:	39 c2                	cmp    %eax,%edx
  103a44:	76 4e                	jbe    103a94 <gop_put_char+0x128>
  103a46:	c7 05 f8 47 00 00 00 	movl   $0x0,0x47f8(%rip)        # 108248 <cursor_x>
  103a4d:	00 00 00 
  103a50:	b8 00 00 00 00       	mov    $0x0,%eax
  103a55:	e8 f7 fd ff ff       	callq  103851 <line_height>
  103a5a:	8b 15 ec 47 00 00    	mov    0x47ec(%rip),%edx        # 10824c <cursor_y>
  103a60:	01 d0                	add    %edx,%eax
  103a62:	89 05 e4 47 00 00    	mov    %eax,0x47e4(%rip)        # 10824c <cursor_y>
  103a68:	b8 00 00 00 00       	mov    $0x0,%eax
  103a6d:	e8 df fd ff ff       	callq  103851 <line_height>
  103a72:	8b 15 d4 47 00 00    	mov    0x47d4(%rip),%edx        # 10824c <cursor_y>
  103a78:	01 c2                	add    %eax,%edx
  103a7a:	48 8b 45 f8          	mov    -0x8(%rbp),%rax
  103a7e:	8b 40 14             	mov    0x14(%rax),%eax
  103a81:	39 c2                	cmp    %eax,%edx
  103a83:	76 0f                	jbe    103a94 <gop_put_char+0x128>
  103a85:	48 8b 45 f8          	mov    -0x8(%rbp),%rax
  103a89:	48 89 c7             	mov    %rax,%rdi
  103a8c:	e8 cb fd ff ff       	callq  10385c <gop_scroll>
  103a91:	eb 01                	jmp    103a94 <gop_put_char+0x128>
  103a93:	90                   	nop
  103a94:	c9                   	leaveq 
  103a95:	c3                   	retq   

0000000000103a96 <gop_puts>:
  103a96:	55                   	push   %rbp
  103a97:	48 89 e5             	mov    %rsp,%rbp
  103a9a:	48 83 ec 20          	sub    $0x20,%rsp
  103a9e:	48 89 7d f8          	mov    %rdi,-0x8(%rbp)
  103aa2:	48 89 75 f0          	mov    %rsi,-0x10(%rbp)
  103aa6:	89 55 ec             	mov    %edx,-0x14(%rbp)
  103aa9:	eb 20                	jmp    103acb <gop_puts+0x35>
  103aab:	48 8b 45 f0          	mov    -0x10(%rbp),%rax
  103aaf:	0f b6 00             	movzbl (%rax),%eax
  103ab2:	0f be c8             	movsbl %al,%ecx
  103ab5:	48 83 45 f0 01       	addq   $0x1,-0x10(%rbp)
  103aba:	8b 55 ec             	mov    -0x14(%rbp),%edx
  103abd:	48 8b 45 f8          	mov    -0x8(%rbp),%rax
  103ac1:	89 ce                	mov    %ecx,%esi
  103ac3:	48 89 c7             	mov    %rax,%rdi
  103ac6:	e8 a1 fe ff ff       	callq  10396c <gop_put_char>
  103acb:	48 8b 45 f0          	mov    -0x10(%rbp),%rax
  103acf:	0f b6 00             	movzbl (%rax),%eax
  103ad2:	84 c0                	test   %al,%al
  103ad4:	75 d5                	jne    103aab <gop_puts+0x15>
  103ad6:	c9                   	leaveq 
  103ad7:	c3                   	retq   

0000000000103ad8 <gop_print_dec>:
  103ad8:	55                   	push   %rbp
  103ad9:	48 89 e5             	mov    %rsp,%rbp
  103adc:	48 83 ec 40          	sub    $0x40,%rsp
  103ae0:	48 89 7d d8          	mov    %rdi,-0x28(%rbp)
  103ae4:	89 75 d4             	mov    %esi,-0x2c(%rbp)
  103ae7:	89 55 d0             	mov    %edx,-0x30(%rbp)
  103aea:	c7 45 fc 00 00 00 00 	movl   $0x0,-0x4(%rbp)
  103af1:	83 7d d4 00          	cmpl   $0x0,-0x2c(%rbp)
  103af5:	75 58                	jne    103b4f <gop_print_dec+0x77>
  103af7:	8b 45 fc             	mov    -0x4(%rbp),%eax
  103afa:	48 98                	cltq   
  103afc:	c6 44 05 e0 30       	movb   $0x30,-0x20(%rbp,%rax,1)
  103b01:	83 45 fc 01          	addl   $0x1,-0x4(%rbp)
  103b05:	eb 4e                	jmp    103b55 <gop_print_dec+0x7d>
  103b07:	8b 4d d4             	mov    -0x2c(%rbp),%ecx
  103b0a:	ba cd cc cc cc       	mov    $0xcccccccd,%edx
  103b0f:	89 c8                	mov    %ecx,%eax
  103b11:	f7 e2                	mul    %edx
  103b13:	c1 ea 03             	shr    $0x3,%edx
  103b16:	89 d0                	mov    %edx,%eax
  103b18:	c1 e0 02             	shl    $0x2,%eax
  103b1b:	01 d0                	add    %edx,%eax
  103b1d:	01 c0                	add    %eax,%eax
  103b1f:	89 ca                	mov    %ecx,%edx
  103b21:	29 c2                	sub    %eax,%edx
  103b23:	89 d0                	mov    %edx,%eax
  103b25:	83 c0 30             	add    $0x30,%eax
  103b28:	89 c2                	mov    %eax,%edx
  103b2a:	8b 45 fc             	mov    -0x4(%rbp),%eax
  103b2d:	48 98                	cltq   
  103b2f:	88 54 05 e0          	mov    %dl,-0x20(%rbp,%rax,1)
  103b33:	83 45 fc 01          	addl   $0x1,-0x4(%rbp)
  103b37:	8b 4d d4             	mov    -0x2c(%rbp),%ecx
  103b3a:	89 4d cc             	mov    %ecx,-0x34(%rbp)
  103b3d:	ba cd cc cc cc       	mov    $0xcccccccd,%edx
  103b42:	8b 45 cc             	mov    -0x34(%rbp),%eax
  103b45:	f7 e2                	mul    %edx
  103b47:	89 d0                	mov    %edx,%eax
  103b49:	c1 e8 03             	shr    $0x3,%eax
  103b4c:	89 45 d4             	mov    %eax,-0x2c(%rbp)
  103b4f:	83 7d d4 00          	cmpl   $0x0,-0x2c(%rbp)
  103b53:	75 b2                	jne    103b07 <gop_print_dec+0x2f>
  103b55:	8b 45 fc             	mov    -0x4(%rbp),%eax
  103b58:	48 98                	cltq   
  103b5a:	c6 44 05 e0 00       	movb   $0x0,-0x20(%rbp,%rax,1)
  103b5f:	c7 45 f8 00 00 00 00 	movl   $0x0,-0x8(%rbp)
  103b66:	eb 49                	jmp    103bb1 <gop_print_dec+0xd9>
  103b68:	8b 45 f8             	mov    -0x8(%rbp),%eax
  103b6b:	48 98                	cltq   
  103b6d:	0f b6 44 05 e0       	movzbl -0x20(%rbp,%rax,1),%eax
  103b72:	88 45 f7             	mov    %al,-0x9(%rbp)
  103b75:	8b 45 f8             	mov    -0x8(%rbp),%eax
  103b78:	8b 55 fc             	mov    -0x4(%rbp),%edx
  103b7b:	89 d1                	mov    %edx,%ecx
  103b7d:	29 c1                	sub    %eax,%ecx
  103b7f:	89 c8                	mov    %ecx,%eax
  103b81:	83 e8 01             	sub    $0x1,%eax
  103b84:	48 98                	cltq   
  103b86:	0f b6 54 05 e0       	movzbl -0x20(%rbp,%rax,1),%edx
  103b8b:	8b 45 f8             	mov    -0x8(%rbp),%eax
  103b8e:	48 98                	cltq   
  103b90:	88 54 05 e0          	mov    %dl,-0x20(%rbp,%rax,1)
  103b94:	8b 45 f8             	mov    -0x8(%rbp),%eax
  103b97:	8b 55 fc             	mov    -0x4(%rbp),%edx
  103b9a:	89 d1                	mov    %edx,%ecx
  103b9c:	29 c1                	sub    %eax,%ecx
  103b9e:	89 c8                	mov    %ecx,%eax
  103ba0:	83 e8 01             	sub    $0x1,%eax
  103ba3:	48 98                	cltq   
  103ba5:	0f b6 55 f7          	movzbl -0x9(%rbp),%edx
  103ba9:	88 54 05 e0          	mov    %dl,-0x20(%rbp,%rax,1)
  103bad:	83 45 f8 01          	addl   $0x1,-0x8(%rbp)
  103bb1:	8b 45 fc             	mov    -0x4(%rbp),%eax
  103bb4:	89 c2                	mov    %eax,%edx
  103bb6:	c1 ea 1f             	shr    $0x1f,%edx
  103bb9:	01 d0                	add    %edx,%eax
  103bbb:	d1 f8                	sar    %eax
  103bbd:	3b 45 f8             	cmp    -0x8(%rbp),%eax
  103bc0:	7f a6                	jg     103b68 <gop_print_dec+0x90>
  103bc2:	8b 55 d0             	mov    -0x30(%rbp),%edx
  103bc5:	48 8d 4d e0          	lea    -0x20(%rbp),%rcx
  103bc9:	48 8b 45 d8          	mov    -0x28(%rbp),%rax
  103bcd:	48 89 ce             	mov    %rcx,%rsi
  103bd0:	48 89 c7             	mov    %rax,%rdi
  103bd3:	e8 be fe ff ff       	callq  103a96 <gop_puts>
  103bd8:	c9                   	leaveq 
  103bd9:	c3                   	retq   

0000000000103bda <gop_print_hex>:
  103bda:	55                   	push   %rbp
  103bdb:	48 89 e5             	mov    %rsp,%rbp
  103bde:	53                   	push   %rbx
  103bdf:	48 83 ec 28          	sub    $0x28,%rsp
  103be3:	48 89 7d d8          	mov    %rdi,-0x28(%rbp)
  103be7:	89 75 d4             	mov    %esi,-0x2c(%rbp)
  103bea:	89 55 d0             	mov    %edx,-0x30(%rbp)
  103bed:	c7 45 e0 30 78 30 30 	movl   $0x30307830,-0x20(%rbp)
  103bf4:	c7 45 e4 30 30 30 30 	movl   $0x30303030,-0x1c(%rbp)
  103bfb:	66 c7 45 e8 30 30    	movw   $0x3030,-0x18(%rbp)
  103c01:	c6 45 ea 00          	movb   $0x0,-0x16(%rbp)
  103c05:	c7 45 ec 00 00 00 00 	movl   $0x0,-0x14(%rbp)
  103c0c:	eb 43                	jmp    103c51 <gop_print_hex+0x77>
  103c0e:	b8 07 00 00 00       	mov    $0x7,%eax
  103c13:	2b 45 ec             	sub    -0x14(%rbp),%eax
  103c16:	c1 e0 02             	shl    $0x2,%eax
  103c19:	8b 55 d4             	mov    -0x2c(%rbp),%edx
  103c1c:	89 d3                	mov    %edx,%ebx
  103c1e:	89 c1                	mov    %eax,%ecx
  103c20:	d3 eb                	shr    %cl,%ebx
  103c22:	89 d8                	mov    %ebx,%eax
  103c24:	83 e0 0f             	and    $0xf,%eax
  103c27:	88 45 eb             	mov    %al,-0x15(%rbp)
  103c2a:	8b 45 ec             	mov    -0x14(%rbp),%eax
  103c2d:	8d 50 02             	lea    0x2(%rax),%edx
  103c30:	80 7d eb 09          	cmpb   $0x9,-0x15(%rbp)
  103c34:	77 09                	ja     103c3f <gop_print_hex+0x65>
  103c36:	0f b6 45 eb          	movzbl -0x15(%rbp),%eax
  103c3a:	83 c0 30             	add    $0x30,%eax
  103c3d:	eb 07                	jmp    103c46 <gop_print_hex+0x6c>
  103c3f:	0f b6 45 eb          	movzbl -0x15(%rbp),%eax
  103c43:	83 c0 57             	add    $0x57,%eax
  103c46:	48 63 d2             	movslq %edx,%rdx
  103c49:	88 44 15 e0          	mov    %al,-0x20(%rbp,%rdx,1)
  103c4d:	83 45 ec 01          	addl   $0x1,-0x14(%rbp)
  103c51:	83 7d ec 07          	cmpl   $0x7,-0x14(%rbp)
  103c55:	7e b7                	jle    103c0e <gop_print_hex+0x34>
  103c57:	8b 55 d0             	mov    -0x30(%rbp),%edx
  103c5a:	48 8d 4d e0          	lea    -0x20(%rbp),%rcx
  103c5e:	48 8b 45 d8          	mov    -0x28(%rbp),%rax
  103c62:	48 89 ce             	mov    %rcx,%rsi
  103c65:	48 89 c7             	mov    %rax,%rdi
  103c68:	e8 29 fe ff ff       	callq  103a96 <gop_puts>
  103c6d:	48 83 c4 28          	add    $0x28,%rsp
  103c71:	5b                   	pop    %rbx
  103c72:	5d                   	pop    %rbp
  103c73:	c3                   	retq   

0000000000103c74 <gop_printf>:
  103c74:	55                   	push   %rbp
  103c75:	48 89 e5             	mov    %rsp,%rbp
  103c78:	48 81 ec 20 01 00 00 	sub    $0x120,%rsp
  103c7f:	48 89 bd f8 fe ff ff 	mov    %rdi,-0x108(%rbp)
  103c86:	89 b5 f4 fe ff ff    	mov    %esi,-0x10c(%rbp)
  103c8c:	48 89 8d 68 ff ff ff 	mov    %rcx,-0x98(%rbp)
  103c93:	4c 89 85 70 ff ff ff 	mov    %r8,-0x90(%rbp)
  103c9a:	4c 89 8d 78 ff ff ff 	mov    %r9,-0x88(%rbp)
  103ca1:	84 c0                	test   %al,%al
  103ca3:	74 20                	je     103cc5 <gop_printf+0x51>
  103ca5:	0f 29 45 80          	movaps %xmm0,-0x80(%rbp)
  103ca9:	0f 29 4d 90          	movaps %xmm1,-0x70(%rbp)
  103cad:	0f 29 55 a0          	movaps %xmm2,-0x60(%rbp)
  103cb1:	0f 29 5d b0          	movaps %xmm3,-0x50(%rbp)
  103cb5:	0f 29 65 c0          	movaps %xmm4,-0x40(%rbp)
  103cb9:	0f 29 6d d0          	movaps %xmm5,-0x30(%rbp)
  103cbd:	0f 29 75 e0          	movaps %xmm6,-0x20(%rbp)
  103cc1:	0f 29 7d f0          	movaps %xmm7,-0x10(%rbp)
  103cc5:	48 89 95 e8 fe ff ff 	mov    %rdx,-0x118(%rbp)
  103ccc:	c7 85 08 ff ff ff 18 	movl   $0x18,-0xf8(%rbp)
  103cd3:	00 00 00 
  103cd6:	c7 85 0c ff ff ff 30 	movl   $0x30,-0xf4(%rbp)
  103cdd:	00 00 00 
  103ce0:	48 8d 45 10          	lea    0x10(%rbp),%rax
  103ce4:	48 89 85 10 ff ff ff 	mov    %rax,-0xf0(%rbp)
  103ceb:	48 8d 85 50 ff ff ff 	lea    -0xb0(%rbp),%rax
  103cf2:	48 89 85 18 ff ff ff 	mov    %rax,-0xe8(%rbp)
  103cf9:	c7 85 4c ff ff ff 00 	movl   $0x0,-0xb4(%rbp)
  103d00:	00 00 00 
  103d03:	e9 d3 03 00 00       	jmpq   1040db <gop_printf+0x467>
  103d08:	8b 85 4c ff ff ff    	mov    -0xb4(%rbp),%eax
  103d0e:	48 98                	cltq   
  103d10:	48 03 85 e8 fe ff ff 	add    -0x118(%rbp),%rax
  103d17:	0f b6 00             	movzbl (%rax),%eax
  103d1a:	3c 25                	cmp    $0x25,%al
  103d1c:	0f 85 86 03 00 00    	jne    1040a8 <gop_printf+0x434>
  103d22:	8b 85 4c ff ff ff    	mov    -0xb4(%rbp),%eax
  103d28:	48 98                	cltq   
  103d2a:	48 83 c0 01          	add    $0x1,%rax
  103d2e:	48 03 85 e8 fe ff ff 	add    -0x118(%rbp),%rax
  103d35:	0f b6 00             	movzbl (%rax),%eax
  103d38:	84 c0                	test   %al,%al
  103d3a:	0f 84 68 03 00 00    	je     1040a8 <gop_printf+0x434>
  103d40:	83 85 4c ff ff ff 01 	addl   $0x1,-0xb4(%rbp)
  103d47:	8b 85 4c ff ff ff    	mov    -0xb4(%rbp),%eax
  103d4d:	48 98                	cltq   
  103d4f:	48 03 85 e8 fe ff ff 	add    -0x118(%rbp),%rax
  103d56:	0f b6 00             	movzbl (%rax),%eax
  103d59:	88 85 4b ff ff ff    	mov    %al,-0xb5(%rbp)
  103d5f:	0f be 85 4b ff ff ff 	movsbl -0xb5(%rbp),%eax
  103d66:	83 f8 70             	cmp    $0x70,%eax
  103d69:	0f 84 88 01 00 00    	je     103ef7 <gop_printf+0x283>
  103d6f:	83 f8 70             	cmp    $0x70,%eax
  103d72:	7f 1c                	jg     103d90 <gop_printf+0x11c>
  103d74:	83 f8 63             	cmp    $0x63,%eax
  103d77:	0f 84 ec 01 00 00    	je     103f69 <gop_printf+0x2f5>
  103d7d:	83 f8 64             	cmp    $0x64,%eax
  103d80:	74 2e                	je     103db0 <gop_printf+0x13c>
  103d82:	83 f8 25             	cmp    $0x25,%eax
  103d85:	0f 84 c4 02 00 00    	je     10404f <gop_printf+0x3db>
  103d8b:	e9 db 02 00 00       	jmpq   10406b <gop_printf+0x3f7>
  103d90:	83 f8 75             	cmp    $0x75,%eax
  103d93:	0f 84 84 00 00 00    	je     103e1d <gop_printf+0x1a9>
  103d99:	83 f8 78             	cmp    $0x78,%eax
  103d9c:	0f 84 e8 00 00 00    	je     103e8a <gop_printf+0x216>
  103da2:	83 f8 73             	cmp    $0x73,%eax
  103da5:	0f 84 2c 02 00 00    	je     103fd7 <gop_printf+0x363>
  103dab:	e9 bb 02 00 00       	jmpq   10406b <gop_printf+0x3f7>
  103db0:	8b 85 08 ff ff ff    	mov    -0xf8(%rbp),%eax
  103db6:	83 f8 30             	cmp    $0x30,%eax
  103db9:	73 23                	jae    103dde <gop_printf+0x16a>
  103dbb:	48 8b 95 18 ff ff ff 	mov    -0xe8(%rbp),%rdx
  103dc2:	8b 85 08 ff ff ff    	mov    -0xf8(%rbp),%eax
  103dc8:	89 c0                	mov    %eax,%eax
  103dca:	48 01 d0             	add    %rdx,%rax
  103dcd:	8b 95 08 ff ff ff    	mov    -0xf8(%rbp),%edx
  103dd3:	83 c2 08             	add    $0x8,%edx
  103dd6:	89 95 08 ff ff ff    	mov    %edx,-0xf8(%rbp)
  103ddc:	eb 15                	jmp    103df3 <gop_printf+0x17f>
  103dde:	48 8b 95 10 ff ff ff 	mov    -0xf0(%rbp),%rdx
  103de5:	48 89 d0             	mov    %rdx,%rax
  103de8:	48 83 c2 08          	add    $0x8,%rdx
  103dec:	48 89 95 10 ff ff ff 	mov    %rdx,-0xf0(%rbp)
  103df3:	8b 00                	mov    (%rax),%eax
  103df5:	89 85 44 ff ff ff    	mov    %eax,-0xbc(%rbp)
  103dfb:	8b 8d 44 ff ff ff    	mov    -0xbc(%rbp),%ecx
  103e01:	8b 95 f4 fe ff ff    	mov    -0x10c(%rbp),%edx
  103e07:	48 8b 85 f8 fe ff ff 	mov    -0x108(%rbp),%rax
  103e0e:	89 ce                	mov    %ecx,%esi
  103e10:	48 89 c7             	mov    %rax,%rdi
  103e13:	e8 c0 fc ff ff       	callq  103ad8 <gop_print_dec>
  103e18:	e9 89 02 00 00       	jmpq   1040a6 <gop_printf+0x432>
  103e1d:	8b 85 08 ff ff ff    	mov    -0xf8(%rbp),%eax
  103e23:	83 f8 30             	cmp    $0x30,%eax
  103e26:	73 23                	jae    103e4b <gop_printf+0x1d7>
  103e28:	48 8b 95 18 ff ff ff 	mov    -0xe8(%rbp),%rdx
  103e2f:	8b 85 08 ff ff ff    	mov    -0xf8(%rbp),%eax
  103e35:	89 c0                	mov    %eax,%eax
  103e37:	48 01 d0             	add    %rdx,%rax
  103e3a:	8b 95 08 ff ff ff    	mov    -0xf8(%rbp),%edx
  103e40:	83 c2 08             	add    $0x8,%edx
  103e43:	89 95 08 ff ff ff    	mov    %edx,-0xf8(%rbp)
  103e49:	eb 15                	jmp    103e60 <gop_printf+0x1ec>
  103e4b:	48 8b 95 10 ff ff ff 	mov    -0xf0(%rbp),%rdx
  103e52:	48 89 d0             	mov    %rdx,%rax
  103e55:	48 83 c2 08          	add    $0x8,%rdx
  103e59:	48 89 95 10 ff ff ff 	mov    %rdx,-0xf0(%rbp)
  103e60:	8b 00                	mov    (%rax),%eax
  103e62:	89 85 40 ff ff ff    	mov    %eax,-0xc0(%rbp)
  103e68:	8b 95 f4 fe ff ff    	mov    -0x10c(%rbp),%edx
  103e6e:	8b 8d 40 ff ff ff    	mov    -0xc0(%rbp),%ecx
  103e74:	48 8b 85 f8 fe ff ff 	mov    -0x108(%rbp),%rax
  103e7b:	89 ce                	mov    %ecx,%esi
  103e7d:	48 89 c7             	mov    %rax,%rdi
  103e80:	e8 53 fc ff ff       	callq  103ad8 <gop_print_dec>
  103e85:	e9 1c 02 00 00       	jmpq   1040a6 <gop_printf+0x432>
  103e8a:	8b 85 08 ff ff ff    	mov    -0xf8(%rbp),%eax
  103e90:	83 f8 30             	cmp    $0x30,%eax
  103e93:	73 23                	jae    103eb8 <gop_printf+0x244>
  103e95:	48 8b 95 18 ff ff ff 	mov    -0xe8(%rbp),%rdx
  103e9c:	8b 85 08 ff ff ff    	mov    -0xf8(%rbp),%eax
  103ea2:	89 c0                	mov    %eax,%eax
  103ea4:	48 01 d0             	add    %rdx,%rax
  103ea7:	8b 95 08 ff ff ff    	mov    -0xf8(%rbp),%edx
  103ead:	83 c2 08             	add    $0x8,%edx
  103eb0:	89 95 08 ff ff ff    	mov    %edx,-0xf8(%rbp)
  103eb6:	eb 15                	jmp    103ecd <gop_printf+0x259>
  103eb8:	48 8b 95 10 ff ff ff 	mov    -0xf0(%rbp),%rdx
  103ebf:	48 89 d0             	mov    %rdx,%rax
  103ec2:	48 83 c2 08          	add    $0x8,%rdx
  103ec6:	48 89 95 10 ff ff ff 	mov    %rdx,-0xf0(%rbp)
  103ecd:	8b 00                	mov    (%rax),%eax
  103ecf:	89 85 3c ff ff ff    	mov    %eax,-0xc4(%rbp)
  103ed5:	8b 95 f4 fe ff ff    	mov    -0x10c(%rbp),%edx
  103edb:	8b 8d 3c ff ff ff    	mov    -0xc4(%rbp),%ecx
  103ee1:	48 8b 85 f8 fe ff ff 	mov    -0x108(%rbp),%rax
  103ee8:	89 ce                	mov    %ecx,%esi
  103eea:	48 89 c7             	mov    %rax,%rdi
  103eed:	e8 e8 fc ff ff       	callq  103bda <gop_print_hex>
  103ef2:	e9 af 01 00 00       	jmpq   1040a6 <gop_printf+0x432>
  103ef7:	8b 85 08 ff ff ff    	mov    -0xf8(%rbp),%eax
  103efd:	83 f8 30             	cmp    $0x30,%eax
  103f00:	73 23                	jae    103f25 <gop_printf+0x2b1>
  103f02:	48 8b 95 18 ff ff ff 	mov    -0xe8(%rbp),%rdx
  103f09:	8b 85 08 ff ff ff    	mov    -0xf8(%rbp),%eax
  103f0f:	89 c0                	mov    %eax,%eax
  103f11:	48 01 d0             	add    %rdx,%rax
  103f14:	8b 95 08 ff ff ff    	mov    -0xf8(%rbp),%edx
  103f1a:	83 c2 08             	add    $0x8,%edx
  103f1d:	89 95 08 ff ff ff    	mov    %edx,-0xf8(%rbp)
  103f23:	eb 15                	jmp    103f3a <gop_printf+0x2c6>
  103f25:	48 8b 95 10 ff ff ff 	mov    -0xf0(%rbp),%rdx
  103f2c:	48 89 d0             	mov    %rdx,%rax
  103f2f:	48 83 c2 08          	add    $0x8,%rdx
  103f33:	48 89 95 10 ff ff ff 	mov    %rdx,-0xf0(%rbp)
  103f3a:	48 8b 00             	mov    (%rax),%rax
  103f3d:	48 89 85 30 ff ff ff 	mov    %rax,-0xd0(%rbp)
  103f44:	48 8b 85 30 ff ff ff 	mov    -0xd0(%rbp),%rax
  103f4b:	89 c1                	mov    %eax,%ecx
  103f4d:	8b 95 f4 fe ff ff    	mov    -0x10c(%rbp),%edx
  103f53:	48 8b 85 f8 fe ff ff 	mov    -0x108(%rbp),%rax
  103f5a:	89 ce                	mov    %ecx,%esi
  103f5c:	48 89 c7             	mov    %rax,%rdi
  103f5f:	e8 76 fc ff ff       	callq  103bda <gop_print_hex>
  103f64:	e9 3d 01 00 00       	jmpq   1040a6 <gop_printf+0x432>
  103f69:	8b 85 08 ff ff ff    	mov    -0xf8(%rbp),%eax
  103f6f:	83 f8 30             	cmp    $0x30,%eax
  103f72:	73 23                	jae    103f97 <gop_printf+0x323>
  103f74:	48 8b 95 18 ff ff ff 	mov    -0xe8(%rbp),%rdx
  103f7b:	8b 85 08 ff ff ff    	mov    -0xf8(%rbp),%eax
  103f81:	89 c0                	mov    %eax,%eax
  103f83:	48 01 d0             	add    %rdx,%rax
  103f86:	8b 95 08 ff ff ff    	mov    -0xf8(%rbp),%edx
  103f8c:	83 c2 08             	add    $0x8,%edx
  103f8f:	89 95 08 ff ff ff    	mov    %edx,-0xf8(%rbp)
  103f95:	eb 15                	jmp    103fac <gop_printf+0x338>
  103f97:	48 8b 95 10 ff ff ff 	mov    -0xf0(%rbp),%rdx
  103f9e:	48 89 d0             	mov    %rdx,%rax
  103fa1:	48 83 c2 08          	add    $0x8,%rdx
  103fa5:	48 89 95 10 ff ff ff 	mov    %rdx,-0xf0(%rbp)
  103fac:	8b 00                	mov    (%rax),%eax
  103fae:	88 85 2f ff ff ff    	mov    %al,-0xd1(%rbp)
  103fb4:	0f be 8d 2f ff ff ff 	movsbl -0xd1(%rbp),%ecx
  103fbb:	8b 95 f4 fe ff ff    	mov    -0x10c(%rbp),%edx
  103fc1:	48 8b 85 f8 fe ff ff 	mov    -0x108(%rbp),%rax
  103fc8:	89 ce                	mov    %ecx,%esi
  103fca:	48 89 c7             	mov    %rax,%rdi
  103fcd:	e8 9a f9 ff ff       	callq  10396c <gop_put_char>
  103fd2:	e9 cf 00 00 00       	jmpq   1040a6 <gop_printf+0x432>
  103fd7:	8b 85 08 ff ff ff    	mov    -0xf8(%rbp),%eax
  103fdd:	83 f8 30             	cmp    $0x30,%eax
  103fe0:	73 23                	jae    104005 <gop_printf+0x391>
  103fe2:	48 8b 95 18 ff ff ff 	mov    -0xe8(%rbp),%rdx
  103fe9:	8b 85 08 ff ff ff    	mov    -0xf8(%rbp),%eax
  103fef:	89 c0                	mov    %eax,%eax
  103ff1:	48 01 d0             	add    %rdx,%rax
  103ff4:	8b 95 08 ff ff ff    	mov    -0xf8(%rbp),%edx
  103ffa:	83 c2 08             	add    $0x8,%edx
  103ffd:	89 95 08 ff ff ff    	mov    %edx,-0xf8(%rbp)
  104003:	eb 15                	jmp    10401a <gop_printf+0x3a6>
  104005:	48 8b 95 10 ff ff ff 	mov    -0xf0(%rbp),%rdx
  10400c:	48 89 d0             	mov    %rdx,%rax
  10400f:	48 83 c2 08          	add    $0x8,%rdx
  104013:	48 89 95 10 ff ff ff 	mov    %rdx,-0xf0(%rbp)
  10401a:	48 8b 00             	mov    (%rax),%rax
  10401d:	48 89 85 20 ff ff ff 	mov    %rax,-0xe0(%rbp)
  104024:	48 83 bd 20 ff ff ff 	cmpq   $0x0,-0xe0(%rbp)
  10402b:	00 
  10402c:	74 77                	je     1040a5 <gop_printf+0x431>
  10402e:	8b 95 f4 fe ff ff    	mov    -0x10c(%rbp),%edx
  104034:	48 8b 8d 20 ff ff ff 	mov    -0xe0(%rbp),%rcx
  10403b:	48 8b 85 f8 fe ff ff 	mov    -0x108(%rbp),%rax
  104042:	48 89 ce             	mov    %rcx,%rsi
  104045:	48 89 c7             	mov    %rax,%rdi
  104048:	e8 49 fa ff ff       	callq  103a96 <gop_puts>
  10404d:	eb 56                	jmp    1040a5 <gop_printf+0x431>
  10404f:	8b 95 f4 fe ff ff    	mov    -0x10c(%rbp),%edx
  104055:	48 8b 85 f8 fe ff ff 	mov    -0x108(%rbp),%rax
  10405c:	be 25 00 00 00       	mov    $0x25,%esi
  104061:	48 89 c7             	mov    %rax,%rdi
  104064:	e8 03 f9 ff ff       	callq  10396c <gop_put_char>
  104069:	eb 3b                	jmp    1040a6 <gop_printf+0x432>
  10406b:	8b 95 f4 fe ff ff    	mov    -0x10c(%rbp),%edx
  104071:	48 8b 85 f8 fe ff ff 	mov    -0x108(%rbp),%rax
  104078:	be 25 00 00 00       	mov    $0x25,%esi
  10407d:	48 89 c7             	mov    %rax,%rdi
  104080:	e8 e7 f8 ff ff       	callq  10396c <gop_put_char>
  104085:	0f be 8d 4b ff ff ff 	movsbl -0xb5(%rbp),%ecx
  10408c:	8b 95 f4 fe ff ff    	mov    -0x10c(%rbp),%edx
  104092:	48 8b 85 f8 fe ff ff 	mov    -0x108(%rbp),%rax
  104099:	89 ce                	mov    %ecx,%esi
  10409b:	48 89 c7             	mov    %rax,%rdi
  10409e:	e8 c9 f8 ff ff       	callq  10396c <gop_put_char>
  1040a3:	eb 01                	jmp    1040a6 <gop_printf+0x432>
  1040a5:	90                   	nop
  1040a6:	eb 2c                	jmp    1040d4 <gop_printf+0x460>
  1040a8:	8b 85 4c ff ff ff    	mov    -0xb4(%rbp),%eax
  1040ae:	48 98                	cltq   
  1040b0:	48 03 85 e8 fe ff ff 	add    -0x118(%rbp),%rax
  1040b7:	0f b6 00             	movzbl (%rax),%eax
  1040ba:	0f be c8             	movsbl %al,%ecx
  1040bd:	8b 95 f4 fe ff ff    	mov    -0x10c(%rbp),%edx
  1040c3:	48 8b 85 f8 fe ff ff 	mov    -0x108(%rbp),%rax
  1040ca:	89 ce                	mov    %ecx,%esi
  1040cc:	48 89 c7             	mov    %rax,%rdi
  1040cf:	e8 98 f8 ff ff       	callq  10396c <gop_put_char>
  1040d4:	83 85 4c ff ff ff 01 	addl   $0x1,-0xb4(%rbp)
  1040db:	8b 85 4c ff ff ff    	mov    -0xb4(%rbp),%eax
  1040e1:	48 98                	cltq   
  1040e3:	48 03 85 e8 fe ff ff 	add    -0x118(%rbp),%rax
  1040ea:	0f b6 00             	movzbl (%rax),%eax
  1040ed:	84 c0                	test   %al,%al
  1040ef:	0f 85 13 fc ff ff    	jne    103d08 <gop_printf+0x94>
  1040f5:	c9                   	leaveq 
  1040f6:	c3                   	retq   

00000000001040f7 <gop_clear_screen>:
  1040f7:	55                   	push   %rbp
  1040f8:	48 89 e5             	mov    %rsp,%rbp
  1040fb:	48 83 ec 20          	sub    $0x20,%rsp
  1040ff:	48 89 7d e8          	mov    %rdi,-0x18(%rbp)
  104103:	89 75 e4             	mov    %esi,-0x1c(%rbp)
  104106:	c7 45 fc 00 00 00 00 	movl   $0x0,-0x4(%rbp)
  10410d:	eb 32                	jmp    104141 <gop_clear_screen+0x4a>
  10410f:	c7 45 f8 00 00 00 00 	movl   $0x0,-0x8(%rbp)
  104116:	eb 19                	jmp    104131 <gop_clear_screen+0x3a>
  104118:	8b 4d e4             	mov    -0x1c(%rbp),%ecx
  10411b:	8b 55 fc             	mov    -0x4(%rbp),%edx
  10411e:	8b 75 f8             	mov    -0x8(%rbp),%esi
  104121:	48 8b 45 e8          	mov    -0x18(%rbp),%rax
  104125:	48 89 c7             	mov    %rax,%rdi
  104128:	e8 ff f4 ff ff       	callq  10362c <plot_pixel>
  10412d:	83 45 f8 01          	addl   $0x1,-0x8(%rbp)
  104131:	48 8b 45 e8          	mov    -0x18(%rbp),%rax
  104135:	8b 40 10             	mov    0x10(%rax),%eax
  104138:	3b 45 f8             	cmp    -0x8(%rbp),%eax
  10413b:	77 db                	ja     104118 <gop_clear_screen+0x21>
  10413d:	83 45 fc 01          	addl   $0x1,-0x4(%rbp)
  104141:	48 8b 45 e8          	mov    -0x18(%rbp),%rax
  104145:	8b 40 14             	mov    0x14(%rax),%eax
  104148:	3b 45 fc             	cmp    -0x4(%rbp),%eax
  10414b:	77 c2                	ja     10410f <gop_clear_screen+0x18>
  10414d:	c9                   	leaveq 
  10414e:	c3                   	retq   
	...

0000000000104150 <isr_common_stub64>:
  104150:	50                   	push   %rax
  104151:	53                   	push   %rbx
  104152:	51                   	push   %rcx
  104153:	52                   	push   %rdx
  104154:	56                   	push   %rsi
  104155:	57                   	push   %rdi
  104156:	55                   	push   %rbp
  104157:	41 50                	push   %r8
  104159:	41 51                	push   %r9
  10415b:	41 52                	push   %r10
  10415d:	41 53                	push   %r11
  10415f:	41 54                	push   %r12
  104161:	41 55                	push   %r13
  104163:	41 56                	push   %r14
  104165:	41 57                	push   %r15
  104167:	48 8b 7c 24 70       	mov    0x70(%rsp),%rdi
  10416c:	48 8d 74 24 78       	lea    0x78(%rsp),%rsi
  104171:	e8 f6 d0 ff ff       	callq  10126c <isr_handler64>
  104176:	48 83 c4 10          	add    $0x10,%rsp
  10417a:	48 83 ff 20          	cmp    $0x20,%rdi
  10417e:	7c 0c                	jl     10418c <isr_common_stub64.no_eoi>
  104180:	b0 20                	mov    $0x20,%al
  104182:	e6 20                	out    %al,$0x20
  104184:	48 83 ff 28          	cmp    $0x28,%rdi
  104188:	7c 02                	jl     10418c <isr_common_stub64.no_eoi>
  10418a:	e6 a0                	out    %al,$0xa0

000000000010418c <isr_common_stub64.no_eoi>:
  10418c:	41 5f                	pop    %r15
  10418e:	41 5e                	pop    %r14
  104190:	41 5d                	pop    %r13
  104192:	41 5c                	pop    %r12
  104194:	41 5b                	pop    %r11
  104196:	41 5a                	pop    %r10
  104198:	41 59                	pop    %r9
  10419a:	41 58                	pop    %r8
  10419c:	5d                   	pop    %rbp
  10419d:	5f                   	pop    %rdi
  10419e:	5e                   	pop    %rsi
  10419f:	5a                   	pop    %rdx
  1041a0:	59                   	pop    %rcx
  1041a1:	5b                   	pop    %rbx
  1041a2:	58                   	pop    %rax
  1041a3:	fb                   	sti    
  1041a4:	48 cf                	iretq  

00000000001041a6 <isr0>:
  1041a6:	fa                   	cli    
  1041a7:	6a 00                	pushq  $0x0
  1041a9:	6a 00                	pushq  $0x0
  1041ab:	eb a3                	jmp    104150 <isr_common_stub64>

00000000001041ad <isr1>:
  1041ad:	fa                   	cli    
  1041ae:	6a 00                	pushq  $0x0
  1041b0:	6a 01                	pushq  $0x1
  1041b2:	eb 9c                	jmp    104150 <isr_common_stub64>

00000000001041b4 <isr2>:
  1041b4:	fa                   	cli    
  1041b5:	6a 00                	pushq  $0x0
  1041b7:	6a 02                	pushq  $0x2
  1041b9:	eb 95                	jmp    104150 <isr_common_stub64>

00000000001041bb <isr3>:
  1041bb:	fa                   	cli    
  1041bc:	6a 00                	pushq  $0x0
  1041be:	6a 03                	pushq  $0x3
  1041c0:	eb 8e                	jmp    104150 <isr_common_stub64>

00000000001041c2 <isr4>:
  1041c2:	fa                   	cli    
  1041c3:	6a 00                	pushq  $0x0
  1041c5:	6a 04                	pushq  $0x4
  1041c7:	eb 87                	jmp    104150 <isr_common_stub64>

00000000001041c9 <isr5>:
  1041c9:	fa                   	cli    
  1041ca:	6a 00                	pushq  $0x0
  1041cc:	6a 05                	pushq  $0x5
  1041ce:	eb 80                	jmp    104150 <isr_common_stub64>

00000000001041d0 <isr6>:
  1041d0:	fa                   	cli    
  1041d1:	6a 00                	pushq  $0x0
  1041d3:	6a 06                	pushq  $0x6
  1041d5:	e9 76 ff ff ff       	jmpq   104150 <isr_common_stub64>

00000000001041da <isr7>:
  1041da:	fa                   	cli    
  1041db:	6a 00                	pushq  $0x0
  1041dd:	6a 07                	pushq  $0x7
  1041df:	e9 6c ff ff ff       	jmpq   104150 <isr_common_stub64>

00000000001041e4 <isr8>:
  1041e4:	fa                   	cli    
  1041e5:	6a 08                	pushq  $0x8
  1041e7:	e9 64 ff ff ff       	jmpq   104150 <isr_common_stub64>

00000000001041ec <isr9>:
  1041ec:	fa                   	cli    
  1041ed:	6a 00                	pushq  $0x0
  1041ef:	6a 09                	pushq  $0x9
  1041f1:	e9 5a ff ff ff       	jmpq   104150 <isr_common_stub64>

00000000001041f6 <isr10>:
  1041f6:	fa                   	cli    
  1041f7:	6a 0a                	pushq  $0xa
  1041f9:	e9 52 ff ff ff       	jmpq   104150 <isr_common_stub64>

00000000001041fe <isr11>:
  1041fe:	fa                   	cli    
  1041ff:	6a 0b                	pushq  $0xb
  104201:	e9 4a ff ff ff       	jmpq   104150 <isr_common_stub64>

0000000000104206 <isr12>:
  104206:	fa                   	cli    
  104207:	6a 0c                	pushq  $0xc
  104209:	e9 42 ff ff ff       	jmpq   104150 <isr_common_stub64>

000000000010420e <isr13>:
  10420e:	fa                   	cli    
  10420f:	6a 0d                	pushq  $0xd
  104211:	e9 3a ff ff ff       	jmpq   104150 <isr_common_stub64>

0000000000104216 <isr14>:
  104216:	fa                   	cli    
  104217:	6a 0e                	pushq  $0xe
  104219:	e9 32 ff ff ff       	jmpq   104150 <isr_common_stub64>

000000000010421e <isr15>:
  10421e:	fa                   	cli    
  10421f:	6a 00                	pushq  $0x0
  104221:	6a 0f                	pushq  $0xf
  104223:	e9 28 ff ff ff       	jmpq   104150 <isr_common_stub64>

0000000000104228 <isr16>:
  104228:	fa                   	cli    
  104229:	6a 00                	pushq  $0x0
  10422b:	6a 10                	pushq  $0x10
  10422d:	e9 1e ff ff ff       	jmpq   104150 <isr_common_stub64>

0000000000104232 <isr17>:
  104232:	fa                   	cli    
  104233:	6a 11                	pushq  $0x11
  104235:	e9 16 ff ff ff       	jmpq   104150 <isr_common_stub64>

000000000010423a <isr18>:
  10423a:	fa                   	cli    
  10423b:	6a 00                	pushq  $0x0
  10423d:	6a 12                	pushq  $0x12
  10423f:	e9 0c ff ff ff       	jmpq   104150 <isr_common_stub64>

0000000000104244 <isr19>:
  104244:	fa                   	cli    
  104245:	6a 00                	pushq  $0x0
  104247:	6a 13                	pushq  $0x13
  104249:	e9 02 ff ff ff       	jmpq   104150 <isr_common_stub64>

000000000010424e <isr20>:
  10424e:	fa                   	cli    
  10424f:	6a 00                	pushq  $0x0
  104251:	6a 14                	pushq  $0x14
  104253:	e9 f8 fe ff ff       	jmpq   104150 <isr_common_stub64>

0000000000104258 <isr21>:
  104258:	fa                   	cli    
  104259:	6a 00                	pushq  $0x0
  10425b:	6a 15                	pushq  $0x15
  10425d:	e9 ee fe ff ff       	jmpq   104150 <isr_common_stub64>

0000000000104262 <isr22>:
  104262:	fa                   	cli    
  104263:	6a 00                	pushq  $0x0
  104265:	6a 16                	pushq  $0x16
  104267:	e9 e4 fe ff ff       	jmpq   104150 <isr_common_stub64>

000000000010426c <isr23>:
  10426c:	fa                   	cli    
  10426d:	6a 00                	pushq  $0x0
  10426f:	6a 17                	pushq  $0x17
  104271:	e9 da fe ff ff       	jmpq   104150 <isr_common_stub64>

0000000000104276 <isr24>:
  104276:	fa                   	cli    
  104277:	6a 00                	pushq  $0x0
  104279:	6a 18                	pushq  $0x18
  10427b:	e9 d0 fe ff ff       	jmpq   104150 <isr_common_stub64>

0000000000104280 <isr25>:
  104280:	fa                   	cli    
  104281:	6a 00                	pushq  $0x0
  104283:	6a 19                	pushq  $0x19
  104285:	e9 c6 fe ff ff       	jmpq   104150 <isr_common_stub64>

000000000010428a <isr26>:
  10428a:	fa                   	cli    
  10428b:	6a 00                	pushq  $0x0
  10428d:	6a 1a                	pushq  $0x1a
  10428f:	e9 bc fe ff ff       	jmpq   104150 <isr_common_stub64>

0000000000104294 <isr27>:
  104294:	fa                   	cli    
  104295:	6a 00                	pushq  $0x0
  104297:	6a 1b                	pushq  $0x1b
  104299:	e9 b2 fe ff ff       	jmpq   104150 <isr_common_stub64>

000000000010429e <isr28>:
  10429e:	fa                   	cli    
  10429f:	6a 00                	pushq  $0x0
  1042a1:	6a 1c                	pushq  $0x1c
  1042a3:	e9 a8 fe ff ff       	jmpq   104150 <isr_common_stub64>

00000000001042a8 <isr29>:
  1042a8:	fa                   	cli    
  1042a9:	6a 00                	pushq  $0x0
  1042ab:	6a 1d                	pushq  $0x1d
  1042ad:	e9 9e fe ff ff       	jmpq   104150 <isr_common_stub64>

00000000001042b2 <isr30>:
  1042b2:	fa                   	cli    
  1042b3:	6a 00                	pushq  $0x0
  1042b5:	6a 1e                	pushq  $0x1e
  1042b7:	e9 94 fe ff ff       	jmpq   104150 <isr_common_stub64>

00000000001042bc <isr31>:
  1042bc:	fa                   	cli    
  1042bd:	6a 00                	pushq  $0x0
  1042bf:	6a 1f                	pushq  $0x1f
  1042c1:	e9 8a fe ff ff       	jmpq   104150 <isr_common_stub64>

00000000001042c6 <irq0>:
  1042c6:	fa                   	cli    
  1042c7:	6a 00                	pushq  $0x0
  1042c9:	6a 20                	pushq  $0x20
  1042cb:	e9 80 fe ff ff       	jmpq   104150 <isr_common_stub64>

00000000001042d0 <irq1>:
  1042d0:	fa                   	cli    
  1042d1:	6a 00                	pushq  $0x0
  1042d3:	6a 21                	pushq  $0x21
  1042d5:	e9 76 fe ff ff       	jmpq   104150 <isr_common_stub64>

00000000001042da <irq2>:
  1042da:	fa                   	cli    
  1042db:	6a 00                	pushq  $0x0
  1042dd:	6a 22                	pushq  $0x22
  1042df:	e9 6c fe ff ff       	jmpq   104150 <isr_common_stub64>

00000000001042e4 <irq3>:
  1042e4:	fa                   	cli    
  1042e5:	6a 00                	pushq  $0x0
  1042e7:	6a 23                	pushq  $0x23
  1042e9:	e9 62 fe ff ff       	jmpq   104150 <isr_common_stub64>

00000000001042ee <irq4>:
  1042ee:	fa                   	cli    
  1042ef:	6a 00                	pushq  $0x0
  1042f1:	6a 24                	pushq  $0x24
  1042f3:	e9 58 fe ff ff       	jmpq   104150 <isr_common_stub64>

00000000001042f8 <irq5>:
  1042f8:	fa                   	cli    
  1042f9:	6a 00                	pushq  $0x0
  1042fb:	6a 25                	pushq  $0x25
  1042fd:	e9 4e fe ff ff       	jmpq   104150 <isr_common_stub64>

0000000000104302 <irq6>:
  104302:	fa                   	cli    
  104303:	6a 00                	pushq  $0x0
  104305:	6a 26                	pushq  $0x26
  104307:	e9 44 fe ff ff       	jmpq   104150 <isr_common_stub64>

000000000010430c <irq7>:
  10430c:	fa                   	cli    
  10430d:	6a 00                	pushq  $0x0
  10430f:	6a 27                	pushq  $0x27
  104311:	e9 3a fe ff ff       	jmpq   104150 <isr_common_stub64>

0000000000104316 <irq8>:
  104316:	fa                   	cli    
  104317:	6a 00                	pushq  $0x0
  104319:	6a 28                	pushq  $0x28
  10431b:	e9 30 fe ff ff       	jmpq   104150 <isr_common_stub64>

0000000000104320 <irq9>:
  104320:	fa                   	cli    
  104321:	6a 00                	pushq  $0x0
  104323:	6a 29                	pushq  $0x29
  104325:	e9 26 fe ff ff       	jmpq   104150 <isr_common_stub64>

000000000010432a <irq10>:
  10432a:	fa                   	cli    
  10432b:	6a 00                	pushq  $0x0
  10432d:	6a 2a                	pushq  $0x2a
  10432f:	e9 1c fe ff ff       	jmpq   104150 <isr_common_stub64>

0000000000104334 <irq11>:
  104334:	fa                   	cli    
  104335:	6a 00                	pushq  $0x0
  104337:	6a 2b                	pushq  $0x2b
  104339:	e9 12 fe ff ff       	jmpq   104150 <isr_common_stub64>

000000000010433e <irq12>:
  10433e:	fa                   	cli    
  10433f:	6a 00                	pushq  $0x0
  104341:	6a 2c                	pushq  $0x2c
  104343:	e9 08 fe ff ff       	jmpq   104150 <isr_common_stub64>

0000000000104348 <irq13>:
  104348:	fa                   	cli    
  104349:	6a 00                	pushq  $0x0
  10434b:	6a 2d                	pushq  $0x2d
  10434d:	e9 fe fd ff ff       	jmpq   104150 <isr_common_stub64>

0000000000104352 <irq14>:
  104352:	fa                   	cli    
  104353:	6a 00                	pushq  $0x0
  104355:	6a 2e                	pushq  $0x2e
  104357:	e9 f4 fd ff ff       	jmpq   104150 <isr_common_stub64>

000000000010435c <irq15>:
  10435c:	fa                   	cli    
  10435d:	6a 00                	pushq  $0x0
  10435f:	6a 2f                	pushq  $0x2f
  104361:	e9 ea fd ff ff       	jmpq   104150 <isr_common_stub64>
	...

0000000000104370 <enable_paging>:
  104370:	0f 22 df             	mov    %rdi,%cr3
  104373:	0f 20 c0             	mov    %cr0,%rax
  104376:	0d 00 00 00 80       	or     $0x80000000,%eax
  10437b:	0d 00 00 01 00       	or     $0x10000,%eax
  104380:	0f 22 c0             	mov    %rax,%cr0
  104383:	c3                   	retq   

0000000000104384 <disable_paging>:
  104384:	0f 20 c0             	mov    %cr0,%rax
  104387:	25 ff ff ff 7f       	and    $0x7fffffff,%eax
  10438c:	0f 22 c0             	mov    %rax,%cr0
  10438f:	c3                   	retq   

0000000000104390 <load_cr3>:
  104390:	0f 22 df             	mov    %rdi,%cr3
  104393:	c3                   	retq   

0000000000104394 <read_cr3>:
  104394:	0f 20 d8             	mov    %cr3,%rax
  104397:	c3                   	retq   

0000000000104398 <read_cr0>:
  104398:	0f 20 c0             	mov    %cr0,%rax
  10439b:	c3                   	retq   

000000000010439c <write_cr0>:
  10439c:	0f 22 c7             	mov    %rdi,%cr0
  10439f:	c3                   	retq   

00000000001043a0 <flush_tlb>:
  1043a0:	0f 01 3f             	invlpg (%rdi)
  1043a3:	c3                   	retq   

00000000001043a4 <flush_all_tlb>:
  1043a4:	0f 20 d8             	mov    %cr3,%rax
  1043a7:	0f 22 d8             	mov    %rax,%cr3
  1043aa:	c3                   	retq   
