  10011c:	e8 79 1d 00 00       	callq  101e9a <paging_init>
  100121:	48 8b 05 30 81 00 00 	mov    0x8130(%rip),%rax        # 108258 <gop>
  100128:	41 b9 23 31 12 00    	mov    $0x123123,%r9d
  10012e:	41 b8 c0 46 10 00    	mov    $0x1046c0,%r8d
  100134:	b9 05 00 00 00       	mov    $0x5,%ecx
  100139:	ba c8 46 10 00       	mov    $0x1046c8,%edx
  10013e:	be 00 00 ff ff       	mov    $0xffff0000,%esi
  100143:	48 89 c7             	mov    %rax,%rdi
  100146:	b8 00 00 00 00       	mov    $0x0,%eax
  10014b:	e8 24 3b 00 00       	callq  103c74 <gop_printf>
  100150:	48 8b 05 01 81 00 00 	mov    0x8101(%rip),%rax        # 108258 <gop>
  100157:	41 b9 03 00 00 00    	mov    $0x3,%r9d
  10015d:	41 b8 02 00 00 00    	mov    $0x2,%r8d
  100163:	b9 01 00 00 00       	mov    $0x1,%ecx
  100168:	ba f9 46 10 00       	mov    $0x1046f9,%edx
  10016d:	be ff 00 00 ff       	mov    $0xff0000ff,%esi
  100172:	48 89 c7             	mov    %rax,%rdi
  100175:	b8 00 00 00 00       	mov    $0x0,%eax
  10017a:	e8 f5 3a 00 00       	callq  103c74 <gop_printf>
  10017f:	e8 a2 fe ff ff       	callq  100026 <__hlt>
  100184:	e8 7d 12 00 00       	callq  101406 <init_interrupts>
  100189:	e8 91 fe ff ff       	callq  10001f <__sti>
  10018e:	48 8b 05 c3 80 00 00 	mov    0x80c3(%rip),%rax        # 108258 <gop>
  100195:	41 b8 ff ff ff ff    	mov    $0xffffffff,%r8d
  10019b:	b9 14 00 00 00       	mov    $0x14,%ecx
  1001a0:	ba 14 00 00 00       	mov    $0x14,%edx
  1001a5:	be 10 47 10 00       	mov    $0x104710,%esi
  1001aa:	48 89 c7             	mov    %rax,%rdi
  1001ad:	e8 0c 36 00 00       	callq  1037be <draw_string>
  1001b2:	e8 6f fe ff ff       	callq  100026 <__hlt>
  1001b7:	eb f9                	jmp    1001b2 <kernel_main+0xdb>
  1001b9:	00 00                	add    %al,(%rax)
	...

00000000001001bc <__outbyte>:
  1001bc:	55                   	push   %rbp
  1001bd:	48 89 e5             	mov    %rsp,%rbp
  1001c0:	89 fa                	mov    %edi,%edx
  1001c2:	89 f0                	mov    %esi,%eax
  1001c4:	66 89 55 fc          	mov    %dx,-0x4(%rbp)
  1001c8:	88 45 f8             	mov    %al,-0x8(%rbp)
  1001cb:	0f b6 45 f8          	movzbl -0x8(%rbp),%eax
  1001cf:	0f b7 55 fc          	movzwl -0x4(%rbp),%edx
  1001d3:	ee                   	out    %al,(%dx)
  1001d4:	5d                   	pop    %rbp
  1001d5:	c3                   	retq   

00000000001001d6 <clear_screen>:
  1001d6:	55                   	push   %rbp
  1001d7:	48 89 e5             	mov    %rsp,%rbp
  1001da:	89 f8                	mov    %edi,%eax
  1001dc:	88 45 dc             	mov    %al,-0x24(%rbp)
  1001df:	0f b6 45 dc          	movzbl -0x24(%rbp),%eax
  1001e3:	c0 e8 04             	shr    $0x4,%al
  1001e6:	88 05 78 6f 00 00    	mov    %al,0x6f78(%rip)        # 107164 <current_bg_color>
  1001ec:	48 c7 45 f0 00 80 0b 	movq   $0xb8000,-0x10(%rbp)
  1001f3:	00 
  1001f4:	0f b6 45 dc          	movzbl -0x24(%rbp),%eax
  1001f8:	c1 e0 08             	shl    $0x8,%eax
  1001fb:	83 c8 20             	or     $0x20,%eax
  1001fe:	66 89 45 ee          	mov    %ax,-0x12(%rbp)
  100202:	c7 45 fc 00 00 00 00 	movl   $0x0,-0x4(%rbp)
  100209:	eb 17                	jmp    100222 <clear_screen+0x4c>
  10020b:	8b 45 fc             	mov    -0x4(%rbp),%eax
  10020e:	48 98                	cltq   
  100210:	48 01 c0             	add    %rax,%rax
  100213:	48 03 45 f0          	add    -0x10(%rbp),%rax
  100217:	0f b7 55 ee          	movzwl -0x12(%rbp),%edx
  10021b:	66 89 10             	mov    %dx,(%rax)
  10021e:	83 45 fc 01          	addl   $0x1,-0x4(%rbp)
  100222:	81 7d fc cf 07 00 00 	cmpl   $0x7cf,-0x4(%rbp)
  100229:	7e e0                	jle    10020b <clear_screen+0x35>
  10022b:	c7 05 23 6f 00 00 00 	movl   $0x0,0x6f23(%rip)        # 107158 <cursor_x>
  100232:	00 00 00 
  100235:	c7 05 1d 6f 00 00 00 	movl   $0x0,0x6f1d(%rip)        # 10715c <cursor_y>
  10023c:	00 00 00 
  10023f:	5d                   	pop    %rbp
  100240:	c3                   	retq   

0000000000100241 <make_color>:
  100241:	55                   	push   %rbp
  100242:	48 89 e5             	mov    %rsp,%rbp
  100245:	89 fa                	mov    %edi,%edx
  100247:	89 f0                	mov    %esi,%eax
  100249:	88 55 fc             	mov    %dl,-0x4(%rbp)
  10024c:	88 45 f8             	mov    %al,-0x8(%rbp)
  10024f:	0f b6 45 f8          	movzbl -0x8(%rbp),%eax
  100253:	c1 e0 04             	shl    $0x4,%eax
  100256:	0f b6 55 fc          	movzbl -0x4(%rbp),%edx
  10025a:	83 e2 0f             	and    $0xf,%edx
  10025d:	09 d0                	or     %edx,%eax
  10025f:	5d                   	pop    %rbp
  100260:	c3                   	retq   

0000000000100261 <print_to_screen>:
  100261:	55                   	push   %rbp
  100262:	48 89 e5             	mov    %rsp,%rbp
  100265:	48 89 7d f8          	mov    %rdi,-0x8(%rbp)
  100269:	89 f0                	mov    %esi,%eax
  10026b:	88 45 f4             	mov    %al,-0xc(%rbp)
  10026e:	5d                   	pop    %rbp
  10026f:	c3                   	retq   

0000000000100270 <print_to_screen_custom_background_foreground>:
  100270:	55                   	push   %rbp
  100271:	48 89 e5             	mov    %rsp,%rbp
  100274:	48 89 7d c8          	mov    %rdi,-0x38(%rbp)
  100278:	89 f0                	mov    %esi,%eax
  10027a:	88 45 c4             	mov    %al,-0x3c(%rbp)
  10027d:	48 c7 45 f0 00 80 0b 	movq   $0xb8000,-0x10(%rbp)
  100284:	00 
  100285:	c7 45 fc 00 00 00 00 	movl   $0x0,-0x4(%rbp)
  10028c:	e9 dd 01 00 00       	jmpq   10046e <print_to_screen_custom_background_foreground+0x1fe>
  100291:	8b 45 fc             	mov    -0x4(%rbp),%eax
  100294:	48 98                	cltq   
  100296:	48 03 45 c8          	add    -0x38(%rbp),%rax
  10029a:	0f b6 00             	movzbl (%rax),%eax
  10029d:	88 45 ef             	mov    %al,-0x11(%rbp)
  1002a0:	80 7d ef 0d          	cmpb   $0xd,-0x11(%rbp)
  1002a4:	75 4d                	jne    1002f3 <print_to_screen_custom_background_foreground+0x83>
  1002a6:	8b 15 b0 6e 00 00    	mov    0x6eb0(%rip),%edx        # 10715c <cursor_y>
  1002ac:	89 d0                	mov    %edx,%eax
  1002ae:	c1 e0 02             	shl    $0x2,%eax
  1002b1:	01 d0                	add    %edx,%eax
  1002b3:	c1 e0 04             	shl    $0x4,%eax
  1002b6:	89 c2                	mov    %eax,%edx
  1002b8:	8b 05 9a 6e 00 00    	mov    0x6e9a(%rip),%eax        # 107158 <cursor_x>
  1002be:	01 d0                	add    %edx,%eax
  1002c0:	01 c0                	add    %eax,%eax
  1002c2:	89 45 e8             	mov    %eax,-0x18(%rbp)
  1002c5:	8b 45 e8             	mov    -0x18(%rbp),%eax
  1002c8:	48 98                	cltq   
  1002ca:	48 03 45 f0          	add    -0x10(%rbp),%rax
  1002ce:	c6 00 20             	movb   $0x20,(%rax)
  1002d1:	8b 45 e8             	mov    -0x18(%rbp),%eax
  1002d4:	48 98                	cltq   
  1002d6:	48 83 c0 01          	add    $0x1,%rax
  1002da:	48 03 45 f0          	add    -0x10(%rbp),%rax
  1002de:	0f b6 55 c4          	movzbl -0x3c(%rbp),%edx
  1002e2:	88 10                	mov    %dl,(%rax)
  1002e4:	c7 05 6a 6e 00 00 00 	movl   $0x0,0x6e6a(%rip)        # 107158 <cursor_x>
  1002eb:	00 00 00 
  1002ee:	e9 3e 01 00 00       	jmpq   100431 <print_to_screen_custom_background_foreground+0x1c1>
  1002f3:	80 7d ef 0a          	cmpb   $0xa,-0x11(%rbp)
  1002f7:	75 1e                	jne    100317 <print_to_screen_custom_background_foreground+0xa7>
  1002f9:	c7 05 55 6e 00 00 00 	movl   $0x0,0x6e55(%rip)        # 107158 <cursor_x>
  100300:	00 00 00 
  100303:	8b 05 53 6e 00 00    	mov    0x6e53(%rip),%eax        # 10715c <cursor_y>
  100309:	83 c0 01             	add    $0x1,%eax
  10030c:	89 05 4a 6e 00 00    	mov    %eax,0x6e4a(%rip)        # 10715c <cursor_y>
  100312:	e9 1a 01 00 00       	jmpq   100431 <print_to_screen_custom_background_foreground+0x1c1>
  100317:	80 7d ef 08          	cmpb   $0x8,-0x11(%rbp)
  10031b:	0f 85 c0 00 00 00    	jne    1003e1 <print_to_screen_custom_background_foreground+0x171>
  100321:	8b 15 35 6e 00 00    	mov    0x6e35(%rip),%edx        # 10715c <cursor_y>
  100327:	89 d0                	mov    %edx,%eax
  100329:	c1 e0 02             	shl    $0x2,%eax
  10032c:	01 d0                	add    %edx,%eax
  10032e:	c1 e0 04             	shl    $0x4,%eax
  100331:	89 c2                	mov    %eax,%edx
  100333:	8b 05 1f 6e 00 00    	mov    0x6e1f(%rip),%eax        # 107158 <cursor_x>
  100339:	01 d0                	add    %edx,%eax
  10033b:	01 c0                	add    %eax,%eax
  10033d:	89 45 e4             	mov    %eax,-0x1c(%rbp)
  100340:	8b 45 e4             	mov    -0x1c(%rbp),%eax
  100343:	48 98                	cltq   
  100345:	48 03 45 f0          	add    -0x10(%rbp),%rax
  100349:	c6 00 20             	movb   $0x20,(%rax)
  10034c:	8b 45 e4             	mov    -0x1c(%rbp),%eax
  10034f:	48 98                	cltq   
  100351:	48 83 c0 01          	add    $0x1,%rax
  100355:	48 03 45 f0          	add    -0x10(%rbp),%rax
  100359:	c6 00 0f             	movb   $0xf,(%rax)
  10035c:	8b 05 f6 6d 00 00    	mov    0x6df6(%rip),%eax        # 107158 <cursor_x>
  100362:	85 c0                	test   %eax,%eax
  100364:	7e 11                	jle    100377 <print_to_screen_custom_background_foreground+0x107>
  100366:	8b 05 ec 6d 00 00    	mov    0x6dec(%rip),%eax        # 107158 <cursor_x>
  10036c:	83 e8 01             	sub    $0x1,%eax
  10036f:	89 05 e3 6d 00 00    	mov    %eax,0x6de3(%rip)        # 107158 <cursor_x>
  100375:	eb 23                	jmp    10039a <print_to_screen_custom_background_foreground+0x12a>
  100377:	8b 05 df 6d 00 00    	mov    0x6ddf(%rip),%eax        # 10715c <cursor_y>
  10037d:	85 c0                	test   %eax,%eax
  10037f:	7e 19                	jle    10039a <print_to_screen_custom_background_foreground+0x12a>
  100381:	8b 05 d5 6d 00 00    	mov    0x6dd5(%rip),%eax        # 10715c <cursor_y>
  100387:	83 e8 01             	sub    $0x1,%eax
  10038a:	89 05 cc 6d 00 00    	mov    %eax,0x6dcc(%rip)        # 10715c <cursor_y>
  100390:	c7 05 be 6d 00 00 4f 	movl   $0x4f,0x6dbe(%rip)        # 107158 <cursor_x>
  100397:	00 00 00 
  10039a:	8b 15 bc 6d 00 00    	mov    0x6dbc(%rip),%edx        # 10715c <cursor_y>
  1003a0:	89 d0                	mov    %edx,%eax
  1003a2:	c1 e0 02             	shl    $0x2,%eax
  1003a5:	01 d0                	add    %edx,%eax
  1003a7:	c1 e0 04             	shl    $0x4,%eax
  1003aa:	89 c2                	mov    %eax,%edx
  1003ac:	8b 05 a6 6d 00 00    	mov    0x6da6(%rip),%eax        # 107158 <cursor_x>
  1003b2:	01 d0                	add    %edx,%eax
  1003b4:	01 c0                	add    %eax,%eax
  1003b6:	89 45 e0             	mov    %eax,-0x20(%rbp)
  1003b9:	8b 45 e0             	mov    -0x20(%rbp),%eax
  1003bc:	48 98                	cltq   
  1003be:	48 03 45 f0          	add    -0x10(%rbp),%rax
  1003c2:	c6 00 20             	movb   $0x20,(%rax)
  1003c5:	8b 45 e0             	mov    -0x20(%rbp),%eax
  1003c8:	48 98                	cltq   
  1003ca:	48 83 c0 01          	add    $0x1,%rax
  1003ce:	48 03 45 f0          	add    -0x10(%rbp),%rax
  1003d2:	c6 00 0f             	movb   $0xf,(%rax)
  1003d5:	c7 05 81 6d 00 00 00 	movl   $0x0,0x6d81(%rip)        # 107160 <cursor_visible>
  1003dc:	00 00 00 
  1003df:	eb 50                	jmp    100431 <print_to_screen_custom_background_foreground+0x1c1>
  1003e1:	8b 15 75 6d 00 00    	mov    0x6d75(%rip),%edx        # 10715c <cursor_y>
  1003e7:	89 d0                	mov    %edx,%eax
  1003e9:	c1 e0 02             	shl    $0x2,%eax
  1003ec:	01 d0                	add    %edx,%eax
  1003ee:	c1 e0 04             	shl    $0x4,%eax
  1003f1:	89 c2                	mov    %eax,%edx
  1003f3:	8b 05 5f 6d 00 00    	mov    0x6d5f(%rip),%eax        # 107158 <cursor_x>
  1003f9:	01 d0                	add    %edx,%eax
  1003fb:	01 c0                	add    %eax,%eax
  1003fd:	89 45 dc             	mov    %eax,-0x24(%rbp)
  100400:	8b 45 dc             	mov    -0x24(%rbp),%eax
  100403:	48 98                	cltq   
  100405:	48 03 45 f0          	add    -0x10(%rbp),%rax
  100409:	0f b6 55 ef          	movzbl -0x11(%rbp),%edx
  10040d:	88 10                	mov    %dl,(%rax)
  10040f:	8b 45 dc             	mov    -0x24(%rbp),%eax
  100412:	48 98                	cltq   
  100414:	48 83 c0 01          	add    $0x1,%rax
  100418:	48 03 45 f0          	add    -0x10(%rbp),%rax
  10041c:	0f b6 55 c4          	movzbl -0x3c(%rbp),%edx
  100420:	88 10                	mov    %dl,(%rax)
  100422:	8b 05 30 6d 00 00    	mov    0x6d30(%rip),%eax        # 107158 <cursor_x>
  100428:	83 c0 01             	add    $0x1,%eax
  10042b:	89 05 27 6d 00 00    	mov    %eax,0x6d27(%rip)        # 107158 <cursor_x>
  100431:	8b 05 21 6d 00 00    	mov    0x6d21(%rip),%eax        # 107158 <cursor_x>
  100437:	83 f8 4f             	cmp    $0x4f,%eax
  10043a:	7e 19                	jle    100455 <print_to_screen_custom_background_foreground+0x1e5>
  10043c:	c7 05 12 6d 00 00 00 	movl   $0x0,0x6d12(%rip)        # 107158 <cursor_x>
  100443:	00 00 00 
  100446:	8b 05 10 6d 00 00    	mov    0x6d10(%rip),%eax        # 10715c <cursor_y>
  10044c:	83 c0 01             	add    $0x1,%eax
  10044f:	89 05 07 6d 00 00    	mov    %eax,0x6d07(%rip)        # 10715c <cursor_y>
  100455:	8b 05 01 6d 00 00    	mov    0x6d01(%rip),%eax        # 10715c <cursor_y>
  10045b:	83 f8 18             	cmp    $0x18,%eax
  10045e:	7e 0a                	jle    10046a <print_to_screen_custom_background_foreground+0x1fa>
  100460:	c7 05 f2 6c 00 00 00 	movl   $0x0,0x6cf2(%rip)        # 10715c <cursor_y>
  100467:	00 00 00 
  10046a:	83 45 fc 01          	addl   $0x1,-0x4(%rbp)
  10046e:	8b 45 fc             	mov    -0x4(%rbp),%eax
  100471:	48 98                	cltq   
  100473:	48 03 45 c8          	add    -0x38(%rbp),%rax
  100477:	0f b6 00             	movzbl (%rax),%eax
  10047a:	84 c0                	test   %al,%al
  10047c:	0f 85 0f fe ff ff    	jne    100291 <print_to_screen_custom_background_foreground+0x21>
  100482:	5d                   	pop    %rbp
  100483:	c3                   	retq   

0000000000100484 <print_dec>:
  100484:	55                   	push   %rbp
  100485:	48 89 e5             	mov    %rsp,%rbp
  100488:	48 83 ec 30          	sub    $0x30,%rsp
  10048c:	89 7d dc             	mov    %edi,-0x24(%rbp)
  10048f:	89 f0                	mov    %esi,%eax
  100491:	88 45 d8             	mov    %al,-0x28(%rbp)
  100494:	c7 45 fc 00 00 00 00 	movl   $0x0,-0x4(%rbp)
  10049b:	83 7d dc 00          	cmpl   $0x0,-0x24(%rbp)
  10049f:	75 56                	jne    1004f7 <print_dec+0x73>
  1004a1:	8b 45 fc             	mov    -0x4(%rbp),%eax
  1004a4:	48 98                	cltq   
  1004a6:	c6 44 05 e0 30       	movb   $0x30,-0x20(%rbp,%rax,1)
  1004ab:	83 45 fc 01          	addl   $0x1,-0x4(%rbp)
  1004af:	eb 54                	jmp    100505 <print_dec+0x81>
  1004b1:	8b 4d dc             	mov    -0x24(%rbp),%ecx
  1004b4:	ba cd cc cc cc       	mov    $0xcccccccd,%edx
  1004b9:	89 c8                	mov    %ecx,%eax
  1004bb:	f7 e2                	mul    %edx
  1004bd:	c1 ea 03             	shr    $0x3,%edx
  1004c0:	89 d0                	mov    %edx,%eax
  1004c2:	c1 e0 02             	shl    $0x2,%eax
  1004c5:	01 d0                	add    %edx,%eax
  1004c7:	01 c0                	add    %eax,%eax
  1004c9:	89 ca                	mov    %ecx,%edx
  1004cb:	29 c2                	sub    %eax,%edx
  1004cd:	89 d0                	mov    %edx,%eax
  1004cf:	8d 50 30             	lea    0x30(%rax),%edx
  1004d2:	8b 45 fc             	mov    -0x4(%rbp),%eax
  1004d5:	48 98                	cltq   
  1004d7:	88 54 05 e0          	mov    %dl,-0x20(%rbp,%rax,1)
  1004db:	83 45 fc 01          	addl   $0x1,-0x4(%rbp)
  1004df:	8b 45 dc             	mov    -0x24(%rbp),%eax
  1004e2:	89 45 d4             	mov    %eax,-0x2c(%rbp)
  1004e5:	ba cd cc cc cc       	mov    $0xcccccccd,%edx
  1004ea:	8b 45 d4             	mov    -0x2c(%rbp),%eax
  1004ed:	f7 e2                	mul    %edx
  1004ef:	89 d0                	mov    %edx,%eax
  1004f1:	c1 e8 03             	shr    $0x3,%eax
  1004f4:	89 45 dc             	mov    %eax,-0x24(%rbp)
  1004f7:	83 7d dc 00          	cmpl   $0x0,-0x24(%rbp)
  1004fb:	74 08                	je     100505 <print_dec+0x81>
  1004fd:	8b 45 fc             	mov    -0x4(%rbp),%eax
  100500:	83 f8 0a             	cmp    $0xa,%eax
  100503:	76 ac                	jbe    1004b1 <print_dec+0x2d>
  100505:	8b 45 fc             	mov    -0x4(%rbp),%eax
  100508:	48 98                	cltq   
  10050a:	c6 44 05 e0 00       	movb   $0x0,-0x20(%rbp,%rax,1)
  10050f:	c7 45 f8 00 00 00 00 	movl   $0x0,-0x8(%rbp)
  100516:	eb 3d                	jmp    100555 <print_dec+0xd1>
  100518:	8b 45 f8             	mov    -0x8(%rbp),%eax
  10051b:	48 98                	cltq   
  10051d:	0f b6 44 05 e0       	movzbl -0x20(%rbp,%rax,1),%eax
  100522:	88 45 f7             	mov    %al,-0x9(%rbp)
  100525:	8b 45 fc             	mov    -0x4(%rbp),%eax
  100528:	83 e8 01             	sub    $0x1,%eax
  10052b:	2b 45 f8             	sub    -0x8(%rbp),%eax
  10052e:	48 98                	cltq   
  100530:	0f b6 54 05 e0       	movzbl -0x20(%rbp,%rax,1),%edx
  100535:	8b 45 f8             	mov    -0x8(%rbp),%eax
  100538:	48 98                	cltq   
  10053a:	88 54 05 e0          	mov    %dl,-0x20(%rbp,%rax,1)
  10053e:	8b 45 fc             	mov    -0x4(%rbp),%eax
  100541:	83 e8 01             	sub    $0x1,%eax
  100544:	2b 45 f8             	sub    -0x8(%rbp),%eax
  100547:	48 98                	cltq   
  100549:	0f b6 55 f7          	movzbl -0x9(%rbp),%edx
  10054d:	88 54 05 e0          	mov    %dl,-0x20(%rbp,%rax,1)
  100551:	83 45 f8 01          	addl   $0x1,-0x8(%rbp)
  100555:	8b 45 fc             	mov    -0x4(%rbp),%eax
  100558:	89 c2                	mov    %eax,%edx
  10055a:	c1 ea 1f             	shr    $0x1f,%edx
  10055d:	01 d0                	add    %edx,%eax
  10055f:	d1 f8                	sar    %eax
  100561:	3b 45 f8             	cmp    -0x8(%rbp),%eax
  100564:	7f b2                	jg     100518 <print_dec+0x94>
  100566:	0f b6 55 d8          	movzbl -0x28(%rbp),%edx
  10056a:	48 8d 45 e0          	lea    -0x20(%rbp),%rax
  10056e:	89 d6                	mov    %edx,%esi
  100570:	48 89 c7             	mov    %rax,%rdi
  100573:	e8 e9 fc ff ff       	callq  100261 <print_to_screen>
  100578:	c9                   	leaveq 
  100579:	c3                   	retq   

000000000010057a <print_dec_custom_background_foreground>:
  10057a:	55                   	push   %rbp
  10057b:	48 89 e5             	mov    %rsp,%rbp
  10057e:	48 83 ec 30          	sub    $0x30,%rsp
  100582:	89 7d dc             	mov    %edi,-0x24(%rbp)
  100585:	89 f0                	mov    %esi,%eax
  100587:	88 45 d8             	mov    %al,-0x28(%rbp)
  10058a:	c7 45 fc 00 00 00 00 	movl   $0x0,-0x4(%rbp)
  100591:	83 7d dc 00          	cmpl   $0x0,-0x24(%rbp)
  100595:	75 56                	jne    1005ed <print_dec_custom_background_foreground+0x73>
  100597:	8b 45 fc             	mov    -0x4(%rbp),%eax
  10059a:	48 98                	cltq   
  10059c:	c6 44 05 e0 30       	movb   $0x30,-0x20(%rbp,%rax,1)
  1005a1:	83 45 fc 01          	addl   $0x1,-0x4(%rbp)
  1005a5:	eb 54                	jmp    1005fb <print_dec_custom_background_foreground+0x81>
  1005a7:	8b 4d dc             	mov    -0x24(%rbp),%ecx
  1005aa:	ba cd cc cc cc       	mov    $0xcccccccd,%edx
  1005af:	89 c8                	mov    %ecx,%eax
  1005b1:	f7 e2                	mul    %edx
  1005b3:	c1 ea 03             	shr    $0x3,%edx
  1005b6:	89 d0                	mov    %edx,%eax
  1005b8:	c1 e0 02             	shl    $0x2,%eax
  1005bb:	01 d0                	add    %edx,%eax
  1005bd:	01 c0                	add    %eax,%eax
  1005bf:	89 ca                	mov    %ecx,%edx
  1005c1:	29 c2                	sub    %eax,%edx
  1005c3:	89 d0                	mov    %edx,%eax
  1005c5:	8d 50 30             	lea    0x30(%rax),%edx
  1005c8:	8b 45 fc             	mov    -0x4(%rbp),%eax
  1005cb:	48 98                	cltq   
  1005cd:	88 54 05 e0          	mov    %dl,-0x20(%rbp,%rax,1)
  1005d1:	83 45 fc 01          	addl   $0x1,-0x4(%rbp)
  1005d5:	8b 45 dc             	mov    -0x24(%rbp),%eax
  1005d8:	89 45 d4             	mov    %eax,-0x2c(%rbp)
  1005db:	ba cd cc cc cc       	mov    $0xcccccccd,%edx
  1005e0:	8b 45 d4             	mov    -0x2c(%rbp),%eax
  1005e3:	f7 e2                	mul    %edx
  1005e5:	89 d0                	mov    %edx,%eax
  1005e7:	c1 e8 03             	shr    $0x3,%eax
  1005ea:	89 45 dc             	mov    %eax,-0x24(%rbp)
  1005ed:	83 7d dc 00          	cmpl   $0x0,-0x24(%rbp)
  1005f1:	74 08                	je     1005fb <print_dec_custom_background_foreground+0x81>
  1005f3:	8b 45 fc             	mov    -0x4(%rbp),%eax
  1005f6:	83 f8 0a             	cmp    $0xa,%eax
  1005f9:	76 ac                	jbe    1005a7 <print_dec_custom_background_foreground+0x2d>
  1005fb:	8b 45 fc             	mov    -0x4(%rbp),%eax
  1005fe:	48 98                	cltq   
  100600:	c6 44 05 e0 00       	movb   $0x0,-0x20(%rbp,%rax,1)
  100605:	c7 45 f8 00 00 00 00 	movl   $0x0,-0x8(%rbp)
  10060c:	eb 3d                	jmp    10064b <print_dec_custom_background_foreground+0xd1>
  10060e:	8b 45 f8             	mov    -0x8(%rbp),%eax
  100611:	48 98                	cltq   
  100613:	0f b6 44 05 e0       	movzbl -0x20(%rbp,%rax,1),%eax
  100618:	88 45 f7             	mov    %al,-0x9(%rbp)
  10061b:	8b 45 fc             	mov    -0x4(%rbp),%eax
  10061e:	83 e8 01             	sub    $0x1,%eax
  100621:	2b 45 f8             	sub    -0x8(%rbp),%eax
  100624:	48 98                	cltq   
  100626:	0f b6 54 05 e0       	movzbl -0x20(%rbp,%rax,1),%edx
  10062b:	8b 45 f8             	mov    -0x8(%rbp),%eax
  10062e:	48 98                	cltq   
  100630:	88 54 05 e0          	mov    %dl,-0x20(%rbp,%rax,1)
  100634:	8b 45 fc             	mov    -0x4(%rbp),%eax
  100637:	83 e8 01             	sub    $0x1,%eax
  10063a:	2b 45 f8             	sub    -0x8(%rbp),%eax
  10063d:	48 98                	cltq   
  10063f:	0f b6 55 f7          	movzbl -0x9(%rbp),%edx
  100643:	88 54 05 e0          	mov    %dl,-0x20(%rbp,%rax,1)
  100647:	83 45 f8 01          	addl   $0x1,-0x8(%rbp)
  10064b:	8b 45 fc             	mov    -0x4(%rbp),%eax
  10064e:	89 c2                	mov    %eax,%edx
  100650:	c1 ea 1f             	shr    $0x1f,%edx
  100653:	01 d0                	add    %edx,%eax
  100655:	d1 f8                	sar    %eax
  100657:	3b 45 f8             	cmp    -0x8(%rbp),%eax
  10065a:	7f b2                	jg     10060e <print_dec_custom_background_foreground+0x94>
  10065c:	0f b6 55 d8          	movzbl -0x28(%rbp),%edx
  100660:	48 8d 45 e0          	lea    -0x20(%rbp),%rax
  100664:	89 d6                	mov    %edx,%esi
  100666:	48 89 c7             	mov    %rax,%rdi
  100669:	e8 02 fc ff ff       	callq  100270 <print_to_screen_custom_background_foreground>
  10066e:	c9                   	leaveq 
  10066f:	c3                   	retq   

0000000000100670 <set_hardware_cursor_position>:
  100670:	55                   	push   %rbp
  100671:	48 89 e5             	mov    %rsp,%rbp
  100674:	48 83 ec 18          	sub    $0x18,%rsp
  100678:	89 7d ec             	mov    %edi,-0x14(%rbp)
  10067b:	89 75 e8             	mov    %esi,-0x18(%rbp)
  10067e:	8b 55 e8             	mov    -0x18(%rbp),%edx
  100681:	89 d0                	mov    %edx,%eax
  100683:	c1 e0 02             	shl    $0x2,%eax
  100686:	01 d0                	add    %edx,%eax
  100688:	c1 e0 04             	shl    $0x4,%eax
  10068b:	03 45 ec             	add    -0x14(%rbp),%eax
  10068e:	89 45 fc             	mov    %eax,-0x4(%rbp)
  100691:	be 0f 00 00 00       	mov    $0xf,%esi
  100696:	bf d4 03 00 00       	mov    $0x3d4,%edi
  10069b:	e8 1c fb ff ff       	callq  1001bc <__outbyte>
  1006a0:	8b 45 fc             	mov    -0x4(%rbp),%eax
  1006a3:	0f b6 c0             	movzbl %al,%eax
  1006a6:	89 c6                	mov    %eax,%esi
  1006a8:	bf d5 03 00 00       	mov    $0x3d5,%edi
  1006ad:	e8 0a fb ff ff       	callq  1001bc <__outbyte>
  1006b2:	be 0e 00 00 00       	mov    $0xe,%esi
  1006b7:	bf d4 03 00 00       	mov    $0x3d4,%edi
  1006bc:	e8 fb fa ff ff       	callq  1001bc <__outbyte>
  1006c1:	8b 45 fc             	mov    -0x4(%rbp),%eax
  1006c4:	c1 e8 08             	shr    $0x8,%eax
  1006c7:	0f b6 c0             	movzbl %al,%eax
  1006ca:	89 c6                	mov    %eax,%esi
  1006cc:	bf d5 03 00 00       	mov    $0x3d5,%edi
  1006d1:	e8 e6 fa ff ff       	callq  1001bc <__outbyte>
  1006d6:	c9                   	leaveq 
  1006d7:	c3                   	retq   

00000000001006d8 <update_char_under_cursor>:
  1006d8:	55                   	push   %rbp
  1006d9:	48 89 e5             	mov    %rsp,%rbp
  1006dc:	48 c7 45 f8 00 80 0b 	movq   $0xb8000,-0x8(%rbp)
  1006e3:	00 
  1006e4:	8b 15 72 6a 00 00    	mov    0x6a72(%rip),%edx        # 10715c <cursor_y>
  1006ea:	89 d0                	mov    %edx,%eax
  1006ec:	c1 e0 02             	shl    $0x2,%eax
  1006ef:	01 d0                	add    %edx,%eax
  1006f1:	c1 e0 04             	shl    $0x4,%eax
  1006f4:	89 c2                	mov    %eax,%edx
  1006f6:	8b 05 5c 6a 00 00    	mov    0x6a5c(%rip),%eax        # 107158 <cursor_x>
  1006fc:	01 d0                	add    %edx,%eax
  1006fe:	01 c0                	add    %eax,%eax
  100700:	89 45 f4             	mov    %eax,-0xc(%rbp)
  100703:	8b 45 f4             	mov    -0xc(%rbp),%eax
  100706:	48 98                	cltq   
  100708:	48 03 45 f8          	add    -0x8(%rbp),%rax
  10070c:	0f b6 00             	movzbl (%rax),%eax
  10070f:	88 05 6b 69 00 00    	mov    %al,0x696b(%rip)        # 107080 <char_under_cursor>
  100715:	5d                   	pop    %rbp
  100716:	c3                   	retq   

0000000000100717 <blink_cursor>:
  100717:	55                   	push   %rbp
  100718:	48 89 e5             	mov    %rsp,%rbp
  10071b:	48 c7 45 f8 00 80 0b 	movq   $0xb8000,-0x8(%rbp)
  100722:	00 
  100723:	8b 15 33 6a 00 00    	mov    0x6a33(%rip),%edx        # 10715c <cursor_y>
  100729:	89 d0                	mov    %edx,%eax
  10072b:	c1 e0 02             	shl    $0x2,%eax
  10072e:	01 d0                	add    %edx,%eax
  100730:	c1 e0 04             	shl    $0x4,%eax
  100733:	89 c2                	mov    %eax,%edx
  100735:	8b 05 1d 6a 00 00    	mov    0x6a1d(%rip),%eax        # 107158 <cursor_x>
  10073b:	01 d0                	add    %edx,%eax
  10073d:	01 c0                	add    %eax,%eax
  10073f:	89 45 f4             	mov    %eax,-0xc(%rbp)
  100742:	8b 05 18 6a 00 00    	mov    0x6a18(%rip),%eax        # 107160 <cursor_visible>
  100748:	85 c0                	test   %eax,%eax
  10074a:	74 2e                	je     10077a <blink_cursor+0x63>
  10074c:	8b 45 f4             	mov    -0xc(%rbp),%eax
  10074f:	48 98                	cltq   
  100751:	48 03 45 f8          	add    -0x8(%rbp),%rax
  100755:	0f b6 15 24 69 00 00 	movzbl 0x6924(%rip),%edx        # 107080 <char_under_cursor>
  10075c:	88 10                	mov    %dl,(%rax)
  10075e:	8b 45 f4             	mov    -0xc(%rbp),%eax
  100761:	48 98                	cltq   
  100763:	48 83 c0 01          	add    $0x1,%rax
  100767:	48 03 45 f8          	add    -0x8(%rbp),%rax
  10076b:	c6 00 0f             	movb   $0xf,(%rax)
  10076e:	c7 05 e8 69 00 00 00 	movl   $0x0,0x69e8(%rip)        # 107160 <cursor_visible>
  100775:	00 00 00 
  100778:	eb 28                	jmp    1007a2 <blink_cursor+0x8b>
  10077a:	8b 45 f4             	mov    -0xc(%rbp),%eax
  10077d:	48 98                	cltq   
  10077f:	48 03 45 f8          	add    -0x8(%rbp),%rax
  100783:	0f b6 00             	movzbl (%rax),%eax
  100786:	88 05 f4 68 00 00    	mov    %al,0x68f4(%rip)        # 107080 <char_under_cursor>
  10078c:	8b 45 f4             	mov    -0xc(%rbp),%eax
  10078f:	48 98                	cltq   
  100791:	48 03 45 f8          	add    -0x8(%rbp),%rax
  100795:	c6 00 5f             	movb   $0x5f,(%rax)
  100798:	c7 05 be 69 00 00 01 	movl   $0x1,0x69be(%rip)        # 107160 <cursor_visible>
  10079f:	00 00 00 
  1007a2:	5d                   	pop    %rbp
  1007a3:	c3                   	retq   

00000000001007a4 <myos_printf>:
  1007a4:	55                   	push   %rbp
  1007a5:	48 89 e5             	mov    %rsp,%rbp
  1007a8:	48 81 ec 40 01 00 00 	sub    $0x140,%rsp
  1007af:	48 89 95 60 ff ff ff 	mov    %rdx,-0xa0(%rbp)
  1007b6:	48 89 8d 68 ff ff ff 	mov    %rcx,-0x98(%rbp)
  1007bd:	4c 89 85 70 ff ff ff 	mov    %r8,-0x90(%rbp)
  1007c4:	4c 89 8d 78 ff ff ff 	mov    %r9,-0x88(%rbp)
  1007cb:	84 c0                	test   %al,%al
  1007cd:	74 20                	je     1007ef <myos_printf+0x4b>
  1007cf:	0f 29 45 80          	movaps %xmm0,-0x80(%rbp)
  1007d3:	0f 29 4d 90          	movaps %xmm1,-0x70(%rbp)
  1007d7:	0f 29 55 a0          	movaps %xmm2,-0x60(%rbp)
  1007db:	0f 29 5d b0          	movaps %xmm3,-0x50(%rbp)
  1007df:	0f 29 65 c0          	movaps %xmm4,-0x40(%rbp)
  1007e3:	0f 29 6d d0          	movaps %xmm5,-0x30(%rbp)
  1007e7:	0f 29 75 e0          	movaps %xmm6,-0x20(%rbp)
  1007eb:	0f 29 7d f0          	movaps %xmm7,-0x10(%rbp)
  1007ef:	48 89 b5 c0 fe ff ff 	mov    %rsi,-0x140(%rbp)
  1007f6:	40 88 bd cc fe ff ff 	mov    %dil,-0x134(%rbp)
  1007fd:	c7 85 08 ff ff ff 10 	movl   $0x10,-0xf8(%rbp)
  100804:	00 00 00 
  100807:	c7 85 0c ff ff ff 30 	movl   $0x30,-0xf4(%rbp)
  10080e:	00 00 00 
  100811:	48 8d 45 10          	lea    0x10(%rbp),%rax
  100815:	48 89 85 10 ff ff ff 	mov    %rax,-0xf0(%rbp)
  10081c:	48 8d 85 50 ff ff ff 	lea    -0xb0(%rbp),%rax
  100823:	48 89 85 18 ff ff ff 	mov    %rax,-0xe8(%rbp)
  10082a:	c7 85 4c ff ff ff 00 	movl   $0x0,-0xb4(%rbp)
  100831:	00 00 00 
  100834:	e9 ed 03 00 00       	jmpq   100c26 <myos_printf+0x482>
  100839:	8b 85 4c ff ff ff    	mov    -0xb4(%rbp),%eax
  10083f:	48 98                	cltq   
  100841:	48 03 85 c0 fe ff ff 	add    -0x140(%rbp),%rax
  100848:	0f b6 00             	movzbl (%rax),%eax
  10084b:	3c 25                	cmp    $0x25,%al
  10084d:	0f 85 95 03 00 00    	jne    100be8 <myos_printf+0x444>
  100853:	8b 85 4c ff ff ff    	mov    -0xb4(%rbp),%eax
  100859:	48 98                	cltq   
  10085b:	48 83 c0 01          	add    $0x1,%rax
  10085f:	48 03 85 c0 fe ff ff 	add    -0x140(%rbp),%rax
  100866:	0f b6 00             	movzbl (%rax),%eax
  100869:	84 c0                	test   %al,%al
  10086b:	0f 84 77 03 00 00    	je     100be8 <myos_printf+0x444>
  100871:	83 85 4c ff ff ff 01 	addl   $0x1,-0xb4(%rbp)
  100878:	8b 85 4c ff ff ff    	mov    -0xb4(%rbp),%eax
  10087e:	48 98                	cltq   
  100880:	48 03 85 c0 fe ff ff 	add    -0x140(%rbp),%rax
  100887:	0f b6 00             	movzbl (%rax),%eax
  10088a:	88 85 4b ff ff ff    	mov    %al,-0xb5(%rbp)
  100890:	0f be 85 4b ff ff ff 	movsbl -0xb5(%rbp),%eax
  100897:	83 f8 70             	cmp    $0x70,%eax
  10089a:	0f 84 6f 01 00 00    	je     100a0f <myos_printf+0x26b>
  1008a0:	83 f8 70             	cmp    $0x70,%eax
  1008a3:	7f 1c                	jg     1008c1 <myos_printf+0x11d>
  1008a5:	83 f8 63             	cmp    $0x63,%eax
  1008a8:	0f 84 dd 01 00 00    	je     100a8b <myos_printf+0x2e7>
  1008ae:	83 f8 64             	cmp    $0x64,%eax
  1008b1:	74 2a                	je     1008dd <myos_printf+0x139>
  1008b3:	83 f8 25             	cmp    $0x25,%eax
  1008b6:	0f 84 c0 02 00 00    	je     100b7c <myos_printf+0x3d8>
  1008bc:	e9 d0 02 00 00       	jmpq   100b91 <myos_printf+0x3ed>
  1008c1:	83 f8 75             	cmp    $0x75,%eax
  1008c4:	74 7d                	je     100943 <myos_printf+0x19f>
  1008c6:	83 f8 78             	cmp    $0x78,%eax
  1008c9:	0f 84 da 00 00 00    	je     1009a9 <myos_printf+0x205>
  1008cf:	83 f8 73             	cmp    $0x73,%eax
  1008d2:	0f 84 2f 02 00 00    	je     100b07 <myos_printf+0x363>
  1008d8:	e9 b4 02 00 00       	jmpq   100b91 <myos_printf+0x3ed>
  1008dd:	8b 85 08 ff ff ff    	mov    -0xf8(%rbp),%eax
  1008e3:	83 f8 30             	cmp    $0x30,%eax
  1008e6:	73 23                	jae    10090b <myos_printf+0x167>
  1008e8:	48 8b 95 18 ff ff ff 	mov    -0xe8(%rbp),%rdx
  1008ef:	8b 85 08 ff ff ff    	mov    -0xf8(%rbp),%eax
  1008f5:	89 c0                	mov    %eax,%eax
  1008f7:	48 01 d0             	add    %rdx,%rax
  1008fa:	8b 95 08 ff ff ff    	mov    -0xf8(%rbp),%edx
  100900:	83 c2 08             	add    $0x8,%edx
  100903:	89 95 08 ff ff ff    	mov    %edx,-0xf8(%rbp)
  100909:	eb 15                	jmp    100920 <myos_printf+0x17c>
  10090b:	48 8b 95 10 ff ff ff 	mov    -0xf0(%rbp),%rdx
  100912:	48 89 d0             	mov    %rdx,%rax
  100915:	48 83 c2 08          	add    $0x8,%rdx
  100919:	48 89 95 10 ff ff ff 	mov    %rdx,-0xf0(%rbp)
  100920:	8b 00                	mov    (%rax),%eax
  100922:	89 85 44 ff ff ff    	mov    %eax,-0xbc(%rbp)
  100928:	0f b6 95 cc fe ff ff 	movzbl -0x134(%rbp),%edx
  10092f:	8b 85 44 ff ff ff    	mov    -0xbc(%rbp),%eax
  100935:	89 d6                	mov    %edx,%esi
  100937:	89 c7                	mov    %eax,%edi
  100939:	e8 46 fb ff ff       	callq  100484 <print_dec>
  10093e:	e9 a3 02 00 00       	jmpq   100be6 <myos_printf+0x442>
  100943:	8b 85 08 ff ff ff    	mov    -0xf8(%rbp),%eax
  100949:	83 f8 30             	cmp    $0x30,%eax
  10094c:	73 23                	jae    100971 <myos_printf+0x1cd>
  10094e:	48 8b 95 18 ff ff ff 	mov    -0xe8(%rbp),%rdx
  100955:	8b 85 08 ff ff ff    	mov    -0xf8(%rbp),%eax
  10095b:	89 c0                	mov    %eax,%eax
  10095d:	48 01 d0             	add    %rdx,%rax
  100960:	8b 95 08 ff ff ff    	mov    -0xf8(%rbp),%edx
  100966:	83 c2 08             	add    $0x8,%edx
  100969:	89 95 08 ff ff ff    	mov    %edx,-0xf8(%rbp)
  10096f:	eb 15                	jmp    100986 <myos_printf+0x1e2>
  100971:	48 8b 95 10 ff ff ff 	mov    -0xf0(%rbp),%rdx
  100978:	48 89 d0             	mov    %rdx,%rax
  10097b:	48 83 c2 08          	add    $0x8,%rdx
  10097f:	48 89 95 10 ff ff ff 	mov    %rdx,-0xf0(%rbp)
  100986:	8b 00                	mov    (%rax),%eax
  100988:	89 85 40 ff ff ff    	mov    %eax,-0xc0(%rbp)
  10098e:	0f b6 95 cc fe ff ff 	movzbl -0x134(%rbp),%edx
  100995:	8b 85 40 ff ff ff    	mov    -0xc0(%rbp),%eax
  10099b:	89 d6                	mov    %edx,%esi
  10099d:	89 c7                	mov    %eax,%edi
  10099f:	e8 e0 fa ff ff       	callq  100484 <print_dec>
  1009a4:	e9 3d 02 00 00       	jmpq   100be6 <myos_printf+0x442>
  1009a9:	8b 85 08 ff ff ff    	mov    -0xf8(%rbp),%eax
  1009af:	83 f8 30             	cmp    $0x30,%eax
  1009b2:	73 23                	jae    1009d7 <myos_printf+0x233>
  1009b4:	48 8b 95 18 ff ff ff 	mov    -0xe8(%rbp),%rdx
  1009bb:	8b 85 08 ff ff ff    	mov    -0xf8(%rbp),%eax
  1009c1:	89 c0                	mov    %eax,%eax
  1009c3:	48 01 d0             	add    %rdx,%rax
  1009c6:	8b 95 08 ff ff ff    	mov    -0xf8(%rbp),%edx
  1009cc:	83 c2 08             	add    $0x8,%edx
  1009cf:	89 95 08 ff ff ff    	mov    %edx,-0xf8(%rbp)
  1009d5:	eb 15                	jmp    1009ec <myos_printf+0x248>
  1009d7:	48 8b 95 10 ff ff ff 	mov    -0xf0(%rbp),%rdx
  1009de:	48 89 d0             	mov    %rdx,%rax
  1009e1:	48 83 c2 08          	add    $0x8,%rdx
  1009e5:	48 89 95 10 ff ff ff 	mov    %rdx,-0xf0(%rbp)
  1009ec:	8b 00                	mov    (%rax),%eax
  1009ee:	89 85 3c ff ff ff    	mov    %eax,-0xc4(%rbp)
  1009f4:	0f b6 95 cc fe ff ff 	movzbl -0x134(%rbp),%edx
  1009fb:	8b 85 3c ff ff ff    	mov    -0xc4(%rbp),%eax
  100a01:	89 d6                	mov    %edx,%esi
  100a03:	89 c7                	mov    %eax,%edi
  100a05:	e8 38 02 00 00       	callq  100c42 <print_hex>
  100a0a:	e9 d7 01 00 00       	jmpq   100be6 <myos_printf+0x442>
  100a0f:	8b 85 08 ff ff ff    	mov    -0xf8(%rbp),%eax
  100a15:	83 f8 30             	cmp    $0x30,%eax
  100a18:	73 23                	jae    100a3d <myos_printf+0x299>
  100a1a:	48 8b 95 18 ff ff ff 	mov    -0xe8(%rbp),%rdx
  100a21:	8b 85 08 ff ff ff    	mov    -0xf8(%rbp),%eax
  100a27:	89 c0                	mov    %eax,%eax
  100a29:	48 01 d0             	add    %rdx,%rax
  100a2c:	8b 95 08 ff ff ff    	mov    -0xf8(%rbp),%edx
  100a32:	83 c2 08             	add    $0x8,%edx
  100a35:	89 95 08 ff ff ff    	mov    %edx,-0xf8(%rbp)
  100a3b:	eb 15                	jmp    100a52 <myos_printf+0x2ae>
  100a3d:	48 8b 95 10 ff ff ff 	mov    -0xf0(%rbp),%rdx
  100a44:	48 89 d0             	mov    %rdx,%rax
  100a47:	48 83 c2 08          	add    $0x8,%rdx
  100a4b:	48 89 95 10 ff ff ff 	mov    %rdx,-0xf0(%rbp)
  100a52:	48 8b 00             	mov    (%rax),%rax
  100a55:	48 89 85 30 ff ff ff 	mov    %rax,-0xd0(%rbp)
  100a5c:	0f b6 85 cc fe ff ff 	movzbl -0x134(%rbp),%eax
  100a63:	89 c6                	mov    %eax,%esi
  100a65:	bf 38 4a 10 00       	mov    $0x104a38,%edi
  100a6a:	e8 f2 f7 ff ff       	callq  100261 <print_to_screen>
  100a6f:	0f b6 95 cc fe ff ff 	movzbl -0x134(%rbp),%edx
  100a76:	48 8b 85 30 ff ff ff 	mov    -0xd0(%rbp),%rax
  100a7d:	89 d6                	mov    %edx,%esi
  100a7f:	89 c7                	mov    %eax,%edi
  100a81:	e8 bc 01 00 00       	callq  100c42 <print_hex>
  100a86:	e9 5b 01 00 00       	jmpq   100be6 <myos_printf+0x442>
  100a8b:	8b 85 08 ff ff ff    	mov    -0xf8(%rbp),%eax
  100a91:	83 f8 30             	cmp    $0x30,%eax
  100a94:	73 23                	jae    100ab9 <myos_printf+0x315>
  100a96:	48 8b 95 18 ff ff ff 	mov    -0xe8(%rbp),%rdx
  100a9d:	8b 85 08 ff ff ff    	mov    -0xf8(%rbp),%eax
  100aa3:	89 c0                	mov    %eax,%eax
  100aa5:	48 01 d0             	add    %rdx,%rax
  100aa8:	8b 95 08 ff ff ff    	mov    -0xf8(%rbp),%edx
  100aae:	83 c2 08             	add    $0x8,%edx
  100ab1:	89 95 08 ff ff ff    	mov    %edx,-0xf8(%rbp)
  100ab7:	eb 15                	jmp    100ace <myos_printf+0x32a>
  100ab9:	48 8b 95 10 ff ff ff 	mov    -0xf0(%rbp),%rdx
  100ac0:	48 89 d0             	mov    %rdx,%rax
  100ac3:	48 83 c2 08          	add    $0x8,%rdx
  100ac7:	48 89 95 10 ff ff ff 	mov    %rdx,-0xf0(%rbp)
  100ace:	8b 00                	mov    (%rax),%eax
  100ad0:	88 85 2f ff ff ff    	mov    %al,-0xd1(%rbp)
  100ad6:	0f b6 85 2f ff ff ff 	movzbl -0xd1(%rbp),%eax
  100add:	88 85 00 ff ff ff    	mov    %al,-0x100(%rbp)
  100ae3:	c6 85 01 ff ff ff 00 	movb   $0x0,-0xff(%rbp)
  100aea:	0f b6 95 cc fe ff ff 	movzbl -0x134(%rbp),%edx
  100af1:	48 8d 85 00 ff ff ff 	lea    -0x100(%rbp),%rax
  100af8:	89 d6                	mov    %edx,%esi
  100afa:	48 89 c7             	mov    %rax,%rdi
  100afd:	e8 5f f7 ff ff       	callq  100261 <print_to_screen>
  100b02:	e9 df 00 00 00       	jmpq   100be6 <myos_printf+0x442>
  100b07:	8b 85 08 ff ff ff    	mov    -0xf8(%rbp),%eax
  100b0d:	83 f8 30             	cmp    $0x30,%eax
  100b10:	73 23                	jae    100b35 <myos_printf+0x391>
  100b12:	48 8b 95 18 ff ff ff 	mov    -0xe8(%rbp),%rdx
  100b19:	8b 85 08 ff ff ff    	mov    -0xf8(%rbp),%eax
  100b1f:	89 c0                	mov    %eax,%eax
  100b21:	48 01 d0             	add    %rdx,%rax
  100b24:	8b 95 08 ff ff ff    	mov    -0xf8(%rbp),%edx
  100b2a:	83 c2 08             	add    $0x8,%edx
  100b2d:	89 95 08 ff ff ff    	mov    %edx,-0xf8(%rbp)
  100b33:	eb 15                	jmp    100b4a <myos_printf+0x3a6>
  100b35:	48 8b 95 10 ff ff ff 	mov    -0xf0(%rbp),%rdx
  100b3c:	48 89 d0             	mov    %rdx,%rax
  100b3f:	48 83 c2 08          	add    $0x8,%rdx
  100b43:	48 89 95 10 ff ff ff 	mov    %rdx,-0xf0(%rbp)
  100b4a:	48 8b 00             	mov    (%rax),%rax
  100b4d:	48 89 85 20 ff ff ff 	mov    %rax,-0xe0(%rbp)
  100b54:	48 83 bd 20 ff ff ff 	cmpq   $0x0,-0xe0(%rbp)
  100b5b:	00 
  100b5c:	0f 84 83 00 00 00    	je     100be5 <myos_printf+0x441>
  100b62:	0f b6 95 cc fe ff ff 	movzbl -0x134(%rbp),%edx
  100b69:	48 8b 85 20 ff ff ff 	mov    -0xe0(%rbp),%rax
  100b70:	89 d6                	mov    %edx,%esi
  100b72:	48 89 c7             	mov    %rax,%rdi
  100b75:	e8 e7 f6 ff ff       	callq  100261 <print_to_screen>
  100b7a:	eb 69                	jmp    100be5 <myos_printf+0x441>
  100b7c:	0f b6 85 cc fe ff ff 	movzbl -0x134(%rbp),%eax
  100b83:	89 c6                	mov    %eax,%esi
  100b85:	bf 3b 4a 10 00       	mov    $0x104a3b,%edi
  100b8a:	e8 d2 f6 ff ff       	callq  100261 <print_to_screen>
  100b8f:	eb 55                	jmp    100be6 <myos_printf+0x442>
  100b91:	c6 85 f0 fe ff ff 25 	movb   $0x25,-0x110(%rbp)
  100b98:	c6 85 f1 fe ff ff 00 	movb   $0x0,-0x10f(%rbp)
  100b9f:	0f b6 95 cc fe ff ff 	movzbl -0x134(%rbp),%edx
  100ba6:	48 8d 85 f0 fe ff ff 	lea    -0x110(%rbp),%rax
  100bad:	89 d6                	mov    %edx,%esi
  100baf:	48 89 c7             	mov    %rax,%rdi
  100bb2:	e8 aa f6 ff ff       	callq  100261 <print_to_screen>
  100bb7:	0f b6 85 4b ff ff ff 	movzbl -0xb5(%rbp),%eax
  100bbe:	88 85 e0 fe ff ff    	mov    %al,-0x120(%rbp)
  100bc4:	c6 85 e1 fe ff ff 00 	movb   $0x0,-0x11f(%rbp)
  100bcb:	0f b6 95 cc fe ff ff 	movzbl -0x134(%rbp),%edx
  100bd2:	48 8d 85 e0 fe ff ff 	lea    -0x120(%rbp),%rax
  100bd9:	89 d6                	mov    %edx,%esi
  100bdb:	48 89 c7             	mov    %rax,%rdi
  100bde:	e8 7e f6 ff ff       	callq  100261 <print_to_screen>
  100be3:	eb 01                	jmp    100be6 <myos_printf+0x442>
  100be5:	90                   	nop
  100be6:	eb 37                	jmp    100c1f <myos_printf+0x47b>
  100be8:	8b 85 4c ff ff ff    	mov    -0xb4(%rbp),%eax
  100bee:	48 98                	cltq   
  100bf0:	48 03 85 c0 fe ff ff 	add    -0x140(%rbp),%rax
  100bf7:	0f b6 00             	movzbl (%rax),%eax
  100bfa:	88 85 d0 fe ff ff    	mov    %al,-0x130(%rbp)
  100c00:	c6 85 d1 fe ff ff 00 	movb   $0x0,-0x12f(%rbp)
  100c07:	0f b6 95 cc fe ff ff 	movzbl -0x134(%rbp),%edx
  100c0e:	48 8d 85 d0 fe ff ff 	lea    -0x130(%rbp),%rax
  100c15:	89 d6                	mov    %edx,%esi
  100c17:	48 89 c7             	mov    %rax,%rdi
  100c1a:	e8 42 f6 ff ff       	callq  100261 <print_to_screen>
  100c1f:	83 85 4c ff ff ff 01 	addl   $0x1,-0xb4(%rbp)
  100c26:	8b 85 4c ff ff ff    	mov    -0xb4(%rbp),%eax
  100c2c:	48 98                	cltq   
  100c2e:	48 03 85 c0 fe ff ff 	add    -0x140(%rbp),%rax
  100c35:	0f b6 00             	movzbl (%rax),%eax
  100c38:	84 c0                	test   %al,%al
  100c3a:	0f 85 f9 fb ff ff    	jne    100839 <myos_printf+0x95>
  100c40:	c9                   	leaveq 
  100c41:	c3                   	retq   

0000000000100c42 <print_hex>:
  100c42:	55                   	push   %rbp
  100c43:	48 89 e5             	mov    %rsp,%rbp
  100c46:	53                   	push   %rbx
  100c47:	48 83 ec 28          	sub    $0x28,%rsp
  100c4b:	89 7d d4             	mov    %edi,-0x2c(%rbp)
  100c4e:	89 f0                	mov    %esi,%eax
  100c50:	88 45 d0             	mov    %al,-0x30(%rbp)
  100c53:	c7 45 f4 00 00 00 00 	movl   $0x0,-0xc(%rbp)
  100c5a:	eb 4c                	jmp    100ca8 <print_hex+0x66>
  100c5c:	b8 07 00 00 00       	mov    $0x7,%eax
  100c61:	2b 45 f4             	sub    -0xc(%rbp),%eax
  100c64:	c1 e0 02             	shl    $0x2,%eax
  100c67:	89 45 f0             	mov    %eax,-0x10(%rbp)
  100c6a:	8b 45 f0             	mov    -0x10(%rbp),%eax
  100c6d:	8b 55 d4             	mov    -0x2c(%rbp),%edx
  100c70:	89 d3                	mov    %edx,%ebx
  100c72:	89 c1                	mov    %eax,%ecx
  100c74:	d3 eb                	shr    %cl,%ebx
  100c76:	89 d8                	mov    %ebx,%eax
  100c78:	83 e0 0f             	and    $0xf,%eax
  100c7b:	89 45 ec             	mov    %eax,-0x14(%rbp)
  100c7e:	83 7d ec 09          	cmpl   $0x9,-0x14(%rbp)
  100c82:	77 11                	ja     100c95 <print_hex+0x53>
  100c84:	8b 45 ec             	mov    -0x14(%rbp),%eax
  100c87:	8d 50 30             	lea    0x30(%rax),%edx
  100c8a:	8b 45 f4             	mov    -0xc(%rbp),%eax
  100c8d:	48 98                	cltq   
  100c8f:	88 54 05 d8          	mov    %dl,-0x28(%rbp,%rax,1)
  100c93:	eb 0f                	jmp    100ca4 <print_hex+0x62>
  100c95:	8b 45 ec             	mov    -0x14(%rbp),%eax
  100c98:	8d 50 37             	lea    0x37(%rax),%edx
  100c9b:	8b 45 f4             	mov    -0xc(%rbp),%eax
  100c9e:	48 98                	cltq   
  100ca0:	88 54 05 d8          	mov    %dl,-0x28(%rbp,%rax,1)
  100ca4:	83 45 f4 01          	addl   $0x1,-0xc(%rbp)
  100ca8:	83 7d f4 07          	cmpl   $0x7,-0xc(%rbp)
  100cac:	7e ae                	jle    100c5c <print_hex+0x1a>
  100cae:	c6 45 e0 00          	movb   $0x0,-0x20(%rbp)
  100cb2:	0f b6 55 d0          	movzbl -0x30(%rbp),%edx
  100cb6:	48 8d 45 d8          	lea    -0x28(%rbp),%rax
  100cba:	89 d6                	mov    %edx,%esi
  100cbc:	48 89 c7             	mov    %rax,%rdi
  100cbf:	e8 9d f5 ff ff       	callq  100261 <print_to_screen>
  100cc4:	0f b6 45 d0          	movzbl -0x30(%rbp),%eax
  100cc8:	89 c6                	mov    %eax,%esi
  100cca:	bf 3d 4a 10 00       	mov    $0x104a3d,%edi
  100ccf:	e8 8d f5 ff ff       	callq  100261 <print_to_screen>
  100cd4:	48 83 c4 28          	add    $0x28,%rsp
  100cd8:	5b                   	pop    %rbx
  100cd9:	5d                   	pop    %rbp
  100cda:	c3                   	retq   

0000000000100cdb <print_hex_custom_background_foreground>:
  100cdb:	55                   	push   %rbp
  100cdc:	48 89 e5             	mov    %rsp,%rbp
  100cdf:	53                   	push   %rbx
  100ce0:	48 83 ec 28          	sub    $0x28,%rsp
  100ce4:	89 7d d4             	mov    %edi,-0x2c(%rbp)
  100ce7:	89 f0                	mov    %esi,%eax
  100ce9:	88 45 d0             	mov    %al,-0x30(%rbp)
  100cec:	c7 45 f4 00 00 00 00 	movl   $0x0,-0xc(%rbp)
  100cf3:	eb 4c                	jmp    100d41 <print_hex_custom_background_foreground+0x66>
  100cf5:	b8 07 00 00 00       	mov    $0x7,%eax
  100cfa:	2b 45 f4             	sub    -0xc(%rbp),%eax
  100cfd:	c1 e0 02             	shl    $0x2,%eax
  100d00:	89 45 f0             	mov    %eax,-0x10(%rbp)
  100d03:	8b 45 f0             	mov    -0x10(%rbp),%eax
  100d06:	8b 55 d4             	mov    -0x2c(%rbp),%edx
  100d09:	89 d3                	mov    %edx,%ebx
  100d0b:	89 c1                	mov    %eax,%ecx
  100d0d:	d3 eb                	shr    %cl,%ebx
  100d0f:	89 d8                	mov    %ebx,%eax
  100d11:	83 e0 0f             	and    $0xf,%eax
  100d14:	89 45 ec             	mov    %eax,-0x14(%rbp)
  100d17:	83 7d ec 09          	cmpl   $0x9,-0x14(%rbp)
  100d1b:	77 11                	ja     100d2e <print_hex_custom_background_foreground+0x53>
  100d1d:	8b 45 ec             	mov    -0x14(%rbp),%eax
  100d20:	8d 50 30             	lea    0x30(%rax),%edx
  100d23:	8b 45 f4             	mov    -0xc(%rbp),%eax
  100d26:	48 98                	cltq   
  100d28:	88 54 05 d8          	mov    %dl,-0x28(%rbp,%rax,1)
  100d2c:	eb 0f                	jmp    100d3d <print_hex_custom_background_foreground+0x62>
  100d2e:	8b 45 ec             	mov    -0x14(%rbp),%eax
  100d31:	8d 50 37             	lea    0x37(%rax),%edx
  100d34:	8b 45 f4             	mov    -0xc(%rbp),%eax
  100d37:	48 98                	cltq   
  100d39:	88 54 05 d8          	mov    %dl,-0x28(%rbp,%rax,1)
  100d3d:	83 45 f4 01          	addl   $0x1,-0xc(%rbp)
  100d41:	83 7d f4 07          	cmpl   $0x7,-0xc(%rbp)
  100d45:	7e ae                	jle    100cf5 <print_hex_custom_background_foreground+0x1a>
  100d47:	c6 45 e0 00          	movb   $0x0,-0x20(%rbp)
  100d4b:	0f b6 55 d0          	movzbl -0x30(%rbp),%edx
  100d4f:	48 8d 45 d8          	lea    -0x28(%rbp),%rax
  100d53:	89 d6                	mov    %edx,%esi
  100d55:	48 89 c7             	mov    %rax,%rdi
  100d58:	e8 13 f5 ff ff       	callq  100270 <print_to_screen_custom_background_foreground>
  100d5d:	0f b6 45 d0          	movzbl -0x30(%rbp),%eax
  100d61:	89 c6                	mov    %eax,%esi
  100d63:	bf 3d 4a 10 00       	mov    $0x104a3d,%edi
  100d68:	e8 03 f5 ff ff       	callq  100270 <print_to_screen_custom_background_foreground>
  100d6d:	48 83 c4 28          	add    $0x28,%rsp
  100d71:	5b                   	pop    %rbx
  100d72:	5d                   	pop    %rbp
  100d73:	c3                   	retq   

0000000000100d74 <__lidt>:
  100d74:	55                   	push   %rbp
  100d75:	48 89 e5             	mov    %rsp,%rbp
  100d78:	48 89 7d f8          	mov    %rdi,-0x8(%rbp)
  100d7c:	48 8b 45 f8          	mov    -0x8(%rbp),%rax
  100d80:	0f 01 18             	lidt   (%rax)
  100d83:	5d                   	pop    %rbp
  100d84:	c3                   	retq   

0000000000100d85 <__outbyte>:
  100d85:	55                   	push   %rbp
  100d86:	48 89 e5             	mov    %rsp,%rbp
  100d89:	89 fa                	mov    %edi,%edx
  100d8b:	89 f0                	mov    %esi,%eax
  100d8d:	66 89 55 fc          	mov    %dx,-0x4(%rbp)
  100d91:	88 45 f8             	mov    %al,-0x8(%rbp)
  100d94:	0f b6 45 f8          	movzbl -0x8(%rbp),%eax
  100d98:	0f b7 55 fc          	movzwl -0x4(%rbp),%edx
  100d9c:	ee                   	out    %al,(%dx)
  100d9d:	5d                   	pop    %rbp
  100d9e:	c3                   	retq   

0000000000100d9f <set_idt_gate>:
  100d9f:	55                   	push   %rbp
  100da0:	48 89 e5             	mov    %rsp,%rbp
  100da3:	89 7d fc             	mov    %edi,-0x4(%rbp)
  100da6:	48 89 75 f0          	mov    %rsi,-0x10(%rbp)
  100daa:	48 8b 45 f0          	mov    -0x10(%rbp),%rax
  100dae:	8b 55 fc             	mov    -0x4(%rbp),%edx
  100db1:	48 63 d2             	movslq %edx,%rdx
  100db4:	48 c1 e2 04          	shl    $0x4,%rdx
  100db8:	48 81 c2 80 82 10 00 	add    $0x108280,%rdx
  100dbf:	66 89 02             	mov    %ax,(%rdx)
  100dc2:	8b 45 fc             	mov    -0x4(%rbp),%eax
  100dc5:	48 98                	cltq   
  100dc7:	48 c1 e0 04          	shl    $0x4,%rax
  100dcb:	48 05 80 82 10 00    	add    $0x108280,%rax
  100dd1:	66 c7 40 02 08 00    	movw   $0x8,0x2(%rax)
  100dd7:	8b 45 fc             	mov    -0x4(%rbp),%eax
  100dda:	48 98                	cltq   
  100ddc:	48 c1 e0 04          	shl    $0x4,%rax
  100de0:	48 05 80 82 10 00    	add    $0x108280,%rax
  100de6:	c6 40 04 00          	movb   $0x0,0x4(%rax)
  100dea:	8b 45 fc             	mov    -0x4(%rbp),%eax
  100ded:	48 98                	cltq   
  100def:	48 c1 e0 04          	shl    $0x4,%rax
  100df3:	48 05 80 82 10 00    	add    $0x108280,%rax
  100df9:	c6 40 05 8e          	movb   $0x8e,0x5(%rax)
  100dfd:	48 8b 45 f0          	mov    -0x10(%rbp),%rax
  100e01:	48 c1 e8 10          	shr    $0x10,%rax
  100e05:	8b 55 fc             	mov    -0x4(%rbp),%edx
  100e08:	48 63 d2             	movslq %edx,%rdx
  100e0b:	48 c1 e2 04          	shl    $0x4,%rdx
  100e0f:	48 81 c2 80 82 10 00 	add    $0x108280,%rdx
  100e16:	66 89 42 06          	mov    %ax,0x6(%rdx)
  100e1a:	48 8b 45 f0          	mov    -0x10(%rbp),%rax
  100e1e:	48 c1 e8 20          	shr    $0x20,%rax
  100e22:	8b 55 fc             	mov    -0x4(%rbp),%edx
  100e25:	48 63 d2             	movslq %edx,%rdx
  100e28:	48 c1 e2 04          	shl    $0x4,%rdx
  100e2c:	48 81 c2 80 82 10 00 	add    $0x108280,%rdx
  100e33:	89 42 08             	mov    %eax,0x8(%rdx)
  100e36:	8b 45 fc             	mov    -0x4(%rbp),%eax
  100e39:	48 98                	cltq   
  100e3b:	48 c1 e0 04          	shl    $0x4,%rax
  100e3f:	48 05 80 82 10 00    	add    $0x108280,%rax
  100e45:	c7 40 0c 00 00 00 00 	movl   $0x0,0xc(%rax)
  100e4c:	5d                   	pop    %rbp
  100e4d:	c3                   	retq   

0000000000100e4e <install_idt>:
  100e4e:	55                   	push   %rbp
  100e4f:	48 89 e5             	mov    %rsp,%rbp
  100e52:	be 11 00 00 00       	mov    $0x11,%esi
  100e57:	bf 20 00 00 00       	mov    $0x20,%edi
  100e5c:	e8 24 ff ff ff       	callq  100d85 <__outbyte>
  100e61:	be 11 00 00 00       	mov    $0x11,%esi
  100e66:	bf a0 00 00 00       	mov    $0xa0,%edi
  100e6b:	e8 15 ff ff ff       	callq  100d85 <__outbyte>
  100e70:	be 20 00 00 00       	mov    $0x20,%esi
  100e75:	bf 21 00 00 00       	mov    $0x21,%edi
  100e7a:	e8 06 ff ff ff       	callq  100d85 <__outbyte>
  100e7f:	be 28 00 00 00       	mov    $0x28,%esi
  100e84:	bf a1 00 00 00       	mov    $0xa1,%edi
  100e89:	e8 f7 fe ff ff       	callq  100d85 <__outbyte>
  100e8e:	be 04 00 00 00       	mov    $0x4,%esi
  100e93:	bf 21 00 00 00       	mov    $0x21,%edi
  100e98:	e8 e8 fe ff ff       	callq  100d85 <__outbyte>
  100e9d:	be 02 00 00 00       	mov    $0x2,%esi
  100ea2:	bf a1 00 00 00       	mov    $0xa1,%edi
  100ea7:	e8 d9 fe ff ff       	callq  100d85 <__outbyte>
  100eac:	be 01 00 00 00       	mov    $0x1,%esi
  100eb1:	bf 21 00 00 00       	mov    $0x21,%edi
  100eb6:	e8 ca fe ff ff       	callq  100d85 <__outbyte>
  100ebb:	be 01 00 00 00       	mov    $0x1,%esi
  100ec0:	bf a1 00 00 00       	mov    $0xa1,%edi
  100ec5:	e8 bb fe ff ff       	callq  100d85 <__outbyte>
  100eca:	be 00 00 00 00       	mov    $0x0,%esi
  100ecf:	bf 21 00 00 00       	mov    $0x21,%edi
  100ed4:	e8 ac fe ff ff       	callq  100d85 <__outbyte>
  100ed9:	be 00 00 00 00       	mov    $0x0,%esi
  100ede:	bf a1 00 00 00       	mov    $0xa1,%edi
  100ee3:	e8 9d fe ff ff       	callq  100d85 <__outbyte>
  100ee8:	b8 a6 41 10 00       	mov    $0x1041a6,%eax
  100eed:	48 89 c6             	mov    %rax,%rsi
  100ef0:	bf 00 00 00 00       	mov    $0x0,%edi
  100ef5:	e8 a5 fe ff ff       	callq  100d9f <set_idt_gate>
  100efa:	b8 ad 41 10 00       	mov    $0x1041ad,%eax
  100eff:	48 89 c6             	mov    %rax,%rsi
  100f02:	bf 01 00 00 00       	mov    $0x1,%edi
  100f07:	e8 93 fe ff ff       	callq  100d9f <set_idt_gate>
  100f0c:	b8 b4 41 10 00       	mov    $0x1041b4,%eax
  100f11:	48 89 c6             	mov    %rax,%rsi
  100f14:	bf 02 00 00 00       	mov    $0x2,%edi
  100f19:	e8 81 fe ff ff       	callq  100d9f <set_idt_gate>
  100f1e:	b8 bb 41 10 00       	mov    $0x1041bb,%eax
  100f23:	48 89 c6             	mov    %rax,%rsi
  100f26:	bf 03 00 00 00       	mov    $0x3,%edi
  100f2b:	e8 6f fe ff ff       	callq  100d9f <set_idt_gate>
  100f30:	b8 c2 41 10 00       	mov    $0x1041c2,%eax
  100f35:	48 89 c6             	mov    %rax,%rsi
  100f38:	bf 04 00 00 00       	mov    $0x4,%edi
  100f3d:	e8 5d fe ff ff       	callq  100d9f <set_idt_gate>
  100f42:	b8 c9 41 10 00       	mov    $0x1041c9,%eax
  100f47:	48 89 c6             	mov    %rax,%rsi
  100f4a:	bf 05 00 00 00       	mov    $0x5,%edi
  100f4f:	e8 4b fe ff ff       	callq  100d9f <set_idt_gate>
  100f54:	b8 d0 41 10 00       	mov    $0x1041d0,%eax
  100f59:	48 89 c6             	mov    %rax,%rsi
  100f5c:	bf 06 00 00 00       	mov    $0x6,%edi
  100f61:	e8 39 fe ff ff       	callq  100d9f <set_idt_gate>
  100f66:	b8 da 41 10 00       	mov    $0x1041da,%eax
  100f6b:	48 89 c6             	mov    %rax,%rsi
  100f6e:	bf 07 00 00 00       	mov    $0x7,%edi
  100f73:	e8 27 fe ff ff       	callq  100d9f <set_idt_gate>
  100f78:	b8 e4 41 10 00       	mov    $0x1041e4,%eax
  100f7d:	48 89 c6             	mov    %rax,%rsi
  100f80:	bf 08 00 00 00       	mov    $0x8,%edi
  100f85:	e8 15 fe ff ff       	callq  100d9f <set_idt_gate>
  100f8a:	b8 ec 41 10 00       	mov    $0x1041ec,%eax
  100f8f:	48 89 c6             	mov    %rax,%rsi
  100f92:	bf 09 00 00 00       	mov    $0x9,%edi
  100f97:	e8 03 fe ff ff       	callq  100d9f <set_idt_gate>
  100f9c:	b8 f6 41 10 00       	mov    $0x1041f6,%eax
  100fa1:	48 89 c6             	mov    %rax,%rsi
  100fa4:	bf 0a 00 00 00       	mov    $0xa,%edi
  100fa9:	e8 f1 fd ff ff       	callq  100d9f <set_idt_gate>
  100fae:	b8 fe 41 10 00       	mov    $0x1041fe,%eax
  100fb3:	48 89 c6             	mov    %rax,%rsi
  100fb6:	bf 0b 00 00 00       	mov    $0xb,%edi
  100fbb:	e8 df fd ff ff       	callq  100d9f <set_idt_gate>
  100fc0:	b8 06 42 10 00       	mov    $0x104206,%eax
  100fc5:	48 89 c6             	mov    %rax,%rsi
  100fc8:	bf 0c 00 00 00       	mov    $0xc,%edi
  100fcd:	e8 cd fd ff ff       	callq  100d9f <set_idt_gate>
  100fd2:	b8 0e 42 10 00       	mov    $0x10420e,%eax
  100fd7:	48 89 c6             	mov    %rax,%rsi
  100fda:	bf 0d 00 00 00       	mov    $0xd,%edi
  100fdf:	e8 bb fd ff ff       	callq  100d9f <set_idt_gate>
  100fe4:	b8 16 42 10 00       	mov    $0x104216,%eax
  100fe9:	48 89 c6             	mov    %rax,%rsi
  100fec:	bf 0e 00 00 00       	mov    $0xe,%edi
  100ff1:	e8 a9 fd ff ff       	callq  100d9f <set_idt_gate>
  100ff6:	b8 1e 42 10 00       	mov    $0x10421e,%eax
  100ffb:	48 89 c6             	mov    %rax,%rsi
  100ffe:	bf 0f 00 00 00       	mov    $0xf,%edi
  101003:	e8 97 fd ff ff       	callq  100d9f <set_idt_gate>
  101008:	b8 28 42 10 00       	mov    $0x104228,%eax
  10100d:	48 89 c6             	mov    %rax,%rsi
  101010:	bf 10 00 00 00       	mov    $0x10,%edi
  101015:	e8 85 fd ff ff       	callq  100d9f <set_idt_gate>
  10101a:	b8 32 42 10 00       	mov    $0x104232,%eax
  10101f:	48 89 c6             	mov    %rax,%rsi
  101022:	bf 11 00 00 00       	mov    $0x11,%edi
  101027:	e8 73 fd ff ff       	callq  100d9f <set_idt_gate>
  10102c:	b8 3a 42 10 00       	mov    $0x10423a,%eax
  101031:	48 89 c6             	mov    %rax,%rsi
  101034:	bf 12 00 00 00       	mov    $0x12,%edi
  101039:	e8 61 fd ff ff       	callq  100d9f <set_idt_gate>
  10103e:	b8 44 42 10 00       	mov    $0x104244,%eax
  101043:	48 89 c6             	mov    %rax,%rsi
  101046:	bf 13 00 00 00       	mov    $0x13,%edi
  10104b:	e8 4f fd ff ff       	callq  100d9f <set_idt_gate>
  101050:	b8 4e 42 10 00       	mov    $0x10424e,%eax
  101055:	48 89 c6             	mov    %rax,%rsi
  101058:	bf 14 00 00 00       	mov    $0x14,%edi
  10105d:	e8 3d fd ff ff       	callq  100d9f <set_idt_gate>
  101062:	b8 58 42 10 00       	mov    $0x104258,%eax
  101067:	48 89 c6             	mov    %rax,%rsi
  10106a:	bf 15 00 00 00       	mov    $0x15,%edi
  10106f:	e8 2b fd ff ff       	callq  100d9f <set_idt_gate>
  101074:	b8 62 42 10 00       	mov    $0x104262,%eax
  101079:	48 89 c6             	mov    %rax,%rsi
  10107c:	bf 16 00 00 00       	mov    $0x16,%edi
  101081:	e8 19 fd ff ff       	callq  100d9f <set_idt_gate>
  101086:	b8 6c 42 10 00       	mov    $0x10426c,%eax
  10108b:	48 89 c6             	mov    %rax,%rsi
  10108e:	bf 17 00 00 00       	mov    $0x17,%edi
  101093:	e8 07 fd ff ff       	callq  100d9f <set_idt_gate>
  101098:	b8 76 42 10 00       	mov    $0x104276,%eax
  10109d:	48 89 c6             	mov    %rax,%rsi
  1010a0:	bf 18 00 00 00       	mov    $0x18,%edi
  1010a5:	e8 f5 fc ff ff       	callq  100d9f <set_idt_gate>
  1010aa:	b8 80 42 10 00       	mov    $0x104280,%eax
  1010af:	48 89 c6             	mov    %rax,%rsi
  1010b2:	bf 19 00 00 00       	mov    $0x19,%edi
  1010b7:	e8 e3 fc ff ff       	callq  100d9f <set_idt_gate>
  1010bc:	b8 8a 42 10 00       	mov    $0x10428a,%eax
  1010c1:	48 89 c6             	mov    %rax,%rsi
  1010c4:	bf 1a 00 00 00       	mov    $0x1a,%edi
  1010c9:	e8 d1 fc ff ff       	callq  100d9f <set_idt_gate>
  1010ce:	b8 94 42 10 00       	mov    $0x104294,%eax
  1010d3:	48 89 c6             	mov    %rax,%rsi
  1010d6:	bf 1b 00 00 00       	mov    $0x1b,%edi
  1010db:	e8 bf fc ff ff       	callq  100d9f <set_idt_gate>
  1010e0:	b8 9e 42 10 00       	mov    $0x10429e,%eax
  1010e5:	48 89 c6             	mov    %rax,%rsi
  1010e8:	bf 1c 00 00 00       	mov    $0x1c,%edi
  1010ed:	e8 ad fc ff ff       	callq  100d9f <set_idt_gate>
  1010f2:	b8 a8 42 10 00       	mov    $0x1042a8,%eax
  1010f7:	48 89 c6             	mov    %rax,%rsi
  1010fa:	bf 1d 00 00 00       	mov    $0x1d,%edi
  1010ff:	e8 9b fc ff ff       	callq  100d9f <set_idt_gate>
  101104:	b8 b2 42 10 00       	mov    $0x1042b2,%eax
  101109:	48 89 c6             	mov    %rax,%rsi
  10110c:	bf 1e 00 00 00       	mov    $0x1e,%edi
  101111:	e8 89 fc ff ff       	callq  100d9f <set_idt_gate>
  101116:	b8 bc 42 10 00       	mov    $0x1042bc,%eax
  10111b:	48 89 c6             	mov    %rax,%rsi
  10111e:	bf 1f 00 00 00       	mov    $0x1f,%edi
  101123:	e8 77 fc ff ff       	callq  100d9f <set_idt_gate>
  101128:	b8 c6 42 10 00       	mov    $0x1042c6,%eax
  10112d:	48 89 c6             	mov    %rax,%rsi
  101130:	bf 20 00 00 00       	mov    $0x20,%edi
  101135:	e8 65 fc ff ff       	callq  100d9f <set_idt_gate>
  10113a:	b8 d0 42 10 00       	mov    $0x1042d0,%eax
  10113f:	48 89 c6             	mov    %rax,%rsi
  101142:	bf 21 00 00 00       	mov    $0x21,%edi
  101147:	e8 53 fc ff ff       	callq  100d9f <set_idt_gate>
  10114c:	b8 da 42 10 00       	mov    $0x1042da,%eax
  101151:	48 89 c6             	mov    %rax,%rsi
  101154:	bf 22 00 00 00       	mov    $0x22,%edi
  101159:	e8 41 fc ff ff       	callq  100d9f <set_idt_gate>
  10115e:	b8 e4 42 10 00       	mov    $0x1042e4,%eax
  101163:	48 89 c6             	mov    %rax,%rsi
  101166:	bf 23 00 00 00       	mov    $0x23,%edi
  10116b:	e8 2f fc ff ff       	callq  100d9f <set_idt_gate>
  101170:	b8 ee 42 10 00       	mov    $0x1042ee,%eax
  101175:	48 89 c6             	mov    %rax,%rsi
  101178:	bf 24 00 00 00       	mov    $0x24,%edi
  10117d:	e8 1d fc ff ff       	callq  100d9f <set_idt_gate>
  101182:	b8 f8 42 10 00       	mov    $0x1042f8,%eax
  101187:	48 89 c6             	mov    %rax,%rsi
  10118a:	bf 25 00 00 00       	mov    $0x25,%edi
  10118f:	e8 0b fc ff ff       	callq  100d9f <set_idt_gate>
  101194:	b8 02 43 10 00       	mov    $0x104302,%eax
  101199:	48 89 c6             	mov    %rax,%rsi
  10119c:	bf 26 00 00 00       	mov    $0x26,%edi
  1011a1:	e8 f9 fb ff ff       	callq  100d9f <set_idt_gate>
  1011a6:	b8 0c 43 10 00       	mov    $0x10430c,%eax
  1011ab:	48 89 c6             	mov    %rax,%rsi
  1011ae:	bf 27 00 00 00       	mov    $0x27,%edi
  1011b3:	e8 e7 fb ff ff       	callq  100d9f <set_idt_gate>
  1011b8:	b8 16 43 10 00       	mov    $0x104316,%eax
  1011bd:	48 89 c6             	mov    %rax,%rsi
  1011c0:	bf 28 00 00 00       	mov    $0x28,%edi
  1011c5:	e8 d5 fb ff ff       	callq  100d9f <set_idt_gate>
  1011ca:	b8 20 43 10 00       	mov    $0x104320,%eax
  1011cf:	48 89 c6             	mov    %rax,%rsi
  1011d2:	bf 29 00 00 00       	mov    $0x29,%edi
  1011d7:	e8 c3 fb ff ff       	callq  100d9f <set_idt_gate>
  1011dc:	b8 2a 43 10 00       	mov    $0x10432a,%eax
  1011e1:	48 89 c6             	mov    %rax,%rsi
  1011e4:	bf 2a 00 00 00       	mov    $0x2a,%edi
  1011e9:	e8 b1 fb ff ff       	callq  100d9f <set_idt_gate>
  1011ee:	b8 34 43 10 00       	mov    $0x104334,%eax
  1011f3:	48 89 c6             	mov    %rax,%rsi
  1011f6:	bf 2b 00 00 00       	mov    $0x2b,%edi
  1011fb:	e8 9f fb ff ff       	callq  100d9f <set_idt_gate>
  101200:	b8 3e 43 10 00       	mov    $0x10433e,%eax
  101205:	48 89 c6             	mov    %rax,%rsi
  101208:	bf 2c 00 00 00       	mov    $0x2c,%edi
  10120d:	e8 8d fb ff ff       	callq  100d9f <set_idt_gate>
  101212:	b8 48 43 10 00       	mov    $0x104348,%eax
  101217:	48 89 c6             	mov    %rax,%rsi
  10121a:	bf 2d 00 00 00       	mov    $0x2d,%edi
  10121f:	e8 7b fb ff ff       	callq  100d9f <set_idt_gate>
  101224:	b8 52 43 10 00       	mov    $0x104352,%eax
  101229:	48 89 c6             	mov    %rax,%rsi
  10122c:	bf 2e 00 00 00       	mov    $0x2e,%edi
  101231:	e8 69 fb ff ff       	callq  100d9f <set_idt_gate>
  101236:	b8 5c 43 10 00       	mov    $0x10435c,%eax
  10123b:	48 89 c6             	mov    %rax,%rsi
  10123e:	bf 2f 00 00 00       	mov    $0x2f,%edi
  101243:	e8 57 fb ff ff       	callq  100d9f <set_idt_gate>
  101248:	66 c7 05 2f 80 00 00 	movw   $0xfff,0x802f(%rip)        # 109280 <PIDT>
  10124f:	ff 0f 
  101251:	b8 80 82 10 00       	mov    $0x108280,%eax
  101256:	48 89 05 25 80 00 00 	mov    %rax,0x8025(%rip)        # 109282 <PIDT+0x2>
  10125d:	bf 80 92 10 00       	mov    $0x109280,%edi
  101262:	e8 0d fb ff ff       	callq  100d74 <__lidt>
  101267:	5d                   	pop    %rbp
  101268:	c3                   	retq   
  101269:	00 00                	add    %al,(%rax)
	...

000000000010126c <isr_handler64>:
  10126c:	55                   	push   %rbp
  10126d:	48 89 e5             	mov    %rsp,%rbp
  101270:	48 83 ec 10          	sub    $0x10,%rsp
  101274:	89 7d fc             	mov    %edi,-0x4(%rbp)
  101277:	48 89 75 f0          	mov    %rsi,-0x10(%rbp)
  10127b:	83 7d fc 2e          	cmpl   $0x2e,-0x4(%rbp)
  10127f:	0f 87 3a 01 00 00    	ja     1013bf <isr_handler64+0x153>
  101285:	8b 45 fc             	mov    -0x4(%rbp),%eax
  101288:	48 8b 04 c5 80 50 10 	mov    0x105080(,%rax,8),%rax
  10128f:	00 
  101290:	ff e0                	jmpq   *%rax
  101292:	48 8b 45 f0          	mov    -0x10(%rbp),%rax
  101296:	48 89 c7             	mov    %rax,%rdi
  101299:	e8 d8 02 00 00       	callq  101576 <dividebyzero_handler>
  10129e:	e9 61 01 00 00       	jmpq   101404 <isr_handler64+0x198>
  1012a3:	48 8b 45 f0          	mov    -0x10(%rbp),%rax
  1012a7:	48 89 c7             	mov    %rax,%rdi
  1012aa:	e8 f3 02 00 00       	callq  1015a2 <debugsinglestep_handler>
  1012af:	e9 50 01 00 00       	jmpq   101404 <isr_handler64+0x198>
  1012b4:	48 8b 45 f0          	mov    -0x10(%rbp),%rax
  1012b8:	48 89 c7             	mov    %rax,%rdi
  1012bb:	e8 13 03 00 00       	callq  1015d3 <nmi_handler>
  1012c0:	e9 3f 01 00 00       	jmpq   101404 <isr_handler64+0x198>
  1012c5:	48 8b 45 f0          	mov    -0x10(%rbp),%rax
  1012c9:	48 89 c7             	mov    %rax,%rdi
  1012cc:	e8 2b 03 00 00       	callq  1015fc <breakpoint_handler>
  1012d1:	e9 2e 01 00 00       	jmpq   101404 <isr_handler64+0x198>
  1012d6:	48 8b 45 f0          	mov    -0x10(%rbp),%rax
  1012da:	48 89 c7             	mov    %rax,%rdi
  1012dd:	e8 4b 03 00 00       	callq  10162d <overflow_handler>
  1012e2:	e9 1d 01 00 00       	jmpq   101404 <isr_handler64+0x198>
  1012e7:	48 8b 45 f0          	mov    -0x10(%rbp),%rax
  1012eb:	48 89 c7             	mov    %rax,%rdi
  1012ee:	e8 63 03 00 00       	callq  101656 <boundscheck_handler>
  1012f3:	e9 0c 01 00 00       	jmpq   101404 <isr_handler64+0x198>
  1012f8:	48 8b 45 f0          	mov    -0x10(%rbp),%rax
  1012fc:	48 89 c7             	mov    %rax,%rdi
  1012ff:	e8 7b 03 00 00       	callq  10167f <invalidopcode_handler>
  101304:	e9 fb 00 00 00       	jmpq   101404 <isr_handler64+0x198>
  101309:	48 8b 45 f0          	mov    -0x10(%rbp),%rax
  10130d:	48 89 c7             	mov    %rax,%rdi
  101310:	e8 96 03 00 00       	callq  1016ab <nocoprocessor_handler>
  101315:	e9 ea 00 00 00       	jmpq   101404 <isr_handler64+0x198>
  10131a:	48 8b 45 f0          	mov    -0x10(%rbp),%rax
  10131e:	48 89 c7             	mov    %rax,%rdi
  101321:	e8 27 02 00 00       	callq  10154d <doublefault_handler>
  101326:	e9 d9 00 00 00       	jmpq   101404 <isr_handler64+0x198>
  10132b:	48 8b 45 f0          	mov    -0x10(%rbp),%rax
  10132f:	48 89 c7             	mov    %rax,%rdi
  101332:	e8 9d 03 00 00       	callq  1016d4 <coprocessor_segment_overrun_handler>
  101337:	e9 c8 00 00 00       	jmpq   101404 <isr_handler64+0x198>
  10133c:	48 8b 45 f0          	mov    -0x10(%rbp),%rax
  101340:	48 89 c7             	mov    %rax,%rdi
  101343:	e8 de 03 00 00       	callq  101726 <segment_selector_not_present_handler>
  101348:	e9 b7 00 00 00       	jmpq   101404 <isr_handler64+0x198>
  10134d:	48 8b 45 f0          	mov    -0x10(%rbp),%rax
  101351:	48 89 c7             	mov    %rax,%rdi
  101354:	e8 a4 03 00 00       	callq  1016fd <invalidtss_handler>
  101359:	e9 a6 00 00 00       	jmpq   101404 <isr_handler64+0x198>
  10135e:	48 8b 45 f0          	mov    -0x10(%rbp),%rax
  101362:	48 89 c7             	mov    %rax,%rdi
  101365:	e8 0e 04 00 00       	callq  101778 <gpf_handler>
  10136a:	e9 95 00 00 00       	jmpq   101404 <isr_handler64+0x198>
  10136f:	48 8b 45 f0          	mov    -0x10(%rbp),%rax
  101373:	48 89 c7             	mov    %rax,%rdi
  101376:	e8 9b 01 00 00       	callq  101516 <pagefault_handler>
  10137b:	e9 84 00 00 00       	jmpq   101404 <isr_handler64+0x198>
  101380:	48 8b 45 f0          	mov    -0x10(%rbp),%rax
  101384:	48 89 c7             	mov    %rax,%rdi
  101387:	e8 15 04 00 00       	callq  1017a1 <fpu_handler>
  10138c:	eb 76                	jmp    101404 <isr_handler64+0x198>
  10138e:	48 8b 45 f0          	mov    -0x10(%rbp),%rax
  101392:	48 89 c7             	mov    %rax,%rdi
  101395:	e8 33 04 00 00       	callq  1017cd <alignment_check_handler>
  10139a:	eb 68                	jmp    101404 <isr_handler64+0x198>
  10139c:	48 8b 45 f0          	mov    -0x10(%rbp),%rax
  1013a0:	48 89 c7             	mov    %rax,%rdi
  1013a3:	e8 4e 04 00 00       	callq  1017f6 <severe_machine_check_handler>
  1013a8:	eb 5a                	jmp    101404 <isr_handler64+0x198>
  1013aa:	e8 a8 00 00 00       	callq  101457 <keyboard_handler>
  1013af:	eb 53                	jmp    101404 <isr_handler64+0x198>
  1013b1:	e8 00 01 00 00       	callq  1014b6 <timer_handler>
  1013b6:	eb 4c                	jmp    101404 <isr_handler64+0x198>
  1013b8:	e8 35 01 00 00       	callq  1014f2 <ata_handler>
  1013bd:	eb 45                	jmp    101404 <isr_handler64+0x198>
  1013bf:	48 8b 05 92 6e 00 00 	mov    0x6e92(%rip),%rax        # 108258 <gop>
  1013c6:	ba 60 50 10 00       	mov    $0x105060,%edx
  1013cb:	be 00 00 ff ff       	mov    $0xffff0000,%esi
  1013d0:	48 89 c7             	mov    %rax,%rdi
  1013d3:	b8 00 00 00 00       	mov    $0x0,%eax
  1013d8:	e8 97 28 00 00       	callq  103c74 <gop_printf>
  1013dd:	48 8b 05 74 6e 00 00 	mov    0x6e74(%rip),%rax        # 108258 <gop>
  1013e4:	8b 55 fc             	mov    -0x4(%rbp),%edx
  1013e7:	89 d1                	mov    %edx,%ecx
  1013e9:	ba 76 50 10 00       	mov    $0x105076,%edx
  1013ee:	be ff ff ff ff       	mov    $0xffffffff,%esi
  1013f3:	48 89 c7             	mov    %rax,%rdi
  1013f6:	b8 00 00 00 00       	mov    $0x0,%eax
  1013fb:	e8 74 28 00 00       	callq  103c74 <gop_printf>
  101400:	90                   	nop
  101401:	eb 01                	jmp    101404 <isr_handler64+0x198>
  101403:	90                   	nop
  101404:	c9                   	leaveq 
  101405:	c3                   	retq   

0000000000101406 <init_interrupts>:
  101406:	55                   	push   %rbp
  101407:	48 89 e5             	mov    %rsp,%rbp
  10140a:	e8 3f fa ff ff       	callq  100e4e <install_idt>
  10140f:	5d                   	pop    %rbp
  101410:	c3                   	retq   
  101411:	00 00                	add    %al,(%rax)
	...

0000000000101414 <__hlt>:
  101414:	55                   	push   %rbp
  101415:	48 89 e5             	mov    %rsp,%rbp
  101418:	f4                   	hlt    
  101419:	5d                   	pop    %rbp
  10141a:	c3                   	retq   

000000000010141b <__outbyte>:
  10141b:	55                   	push   %rbp
  10141c:	48 89 e5             	mov    %rsp,%rbp
  10141f:	89 fa                	mov    %edi,%edx
  101421:	89 f0                	mov    %esi,%eax
  101423:	66 89 55 fc          	mov    %dx,-0x4(%rbp)
  101427:	88 45 f8             	mov    %al,-0x8(%rbp)
  10142a:	0f b6 45 f8          	movzbl -0x8(%rbp),%eax
  10142e:	0f b7 55 fc          	movzwl -0x4(%rbp),%edx
  101432:	ee                   	out    %al,(%dx)
  101433:	5d                   	pop    %rbp
  101434:	c3                   	retq   

0000000000101435 <init_keyboard>:
  101435:	55                   	push   %rbp
  101436:	48 89 e5             	mov    %rsp,%rbp
  101439:	c6 05 30 5d 00 00 00 	movb   $0x0,0x5d30(%rip)        # 107170 <shift_pressed>
  101440:	c6 05 2a 5d 00 00 00 	movb   $0x0,0x5d2a(%rip)        # 107171 <ctrl_pressed>
  101447:	c6 05 24 5d 00 00 00 	movb   $0x0,0x5d24(%rip)        # 107172 <caps_lock_on>
  10144e:	c6 05 1e 5d 00 00 00 	movb   $0x0,0x5d1e(%rip)        # 107173 <extended_scancode>
  101455:	5d                   	pop    %rbp
  101456:	c3                   	retq   

0000000000101457 <keyboard_handler>:
  101457:	55                   	push   %rbp
  101458:	48 89 e5             	mov    %rsp,%rbp
  10145b:	5d                   	pop    %rbp
  10145c:	c3                   	retq   

000000000010145d <init_timer>:
  10145d:	55                   	push   %rbp
  10145e:	48 89 e5             	mov    %rsp,%rbp
  101461:	48 83 ec 18          	sub    $0x18,%rsp
  101465:	48 89 7d e8          	mov    %rdi,-0x18(%rbp)
  101469:	b8 dc 34 12 00       	mov    $0x1234dc,%eax
  10146e:	ba 00 00 00 00       	mov    $0x0,%edx
  101473:	48 f7 75 e8          	divq   -0x18(%rbp)
  101477:	48 89 45 f8          	mov    %rax,-0x8(%rbp)
  10147b:	be 36 00 00 00       	mov    $0x36,%esi
  101480:	bf 43 00 00 00       	mov    $0x43,%edi
  101485:	e8 91 ff ff ff       	callq  10141b <__outbyte>
  10148a:	48 8b 45 f8          	mov    -0x8(%rbp),%rax
  10148e:	0f b6 c0             	movzbl %al,%eax
  101491:	89 c6                	mov    %eax,%esi
  101493:	bf 40 00 00 00       	mov    $0x40,%edi
  101498:	e8 7e ff ff ff       	callq  10141b <__outbyte>
  10149d:	48 8b 45 f8          	mov    -0x8(%rbp),%rax
  1014a1:	48 c1 e8 08          	shr    $0x8,%rax
  1014a5:	0f b6 c0             	movzbl %al,%eax
  1014a8:	89 c6                	mov    %eax,%esi
  1014aa:	bf 40 00 00 00       	mov    $0x40,%edi
  1014af:	e8 67 ff ff ff       	callq  10141b <__outbyte>
  1014b4:	c9                   	leaveq 
  1014b5:	c3                   	retq   

00000000001014b6 <timer_handler>:
  1014b6:	55                   	push   %rbp
  1014b7:	48 89 e5             	mov    %rsp,%rbp
  1014ba:	8b 05 b4 5c 00 00    	mov    0x5cb4(%rip),%eax        # 107174 <tick>
  1014c0:	83 c0 01             	add    $0x1,%eax
  1014c3:	89 05 ab 5c 00 00    	mov    %eax,0x5cab(%rip)        # 107174 <tick>
  1014c9:	8b 0d a5 5c 00 00    	mov    0x5ca5(%rip),%ecx        # 107174 <tick>
  1014cf:	ba 67 66 66 66       	mov    $0x66666667,%edx
  1014d4:	89 c8                	mov    %ecx,%eax
  1014d6:	f7 ea                	imul   %edx
  1014d8:	c1 fa 03             	sar    $0x3,%edx
  1014db:	89 c8                	mov    %ecx,%eax
  1014dd:	c1 f8 1f             	sar    $0x1f,%eax
  1014e0:	29 c2                	sub    %eax,%edx
  1014e2:	89 d0                	mov    %edx,%eax
  1014e4:	c1 e0 02             	shl    $0x2,%eax
  1014e7:	01 d0                	add    %edx,%eax
  1014e9:	c1 e0 02             	shl    $0x2,%eax
  1014ec:	89 ca                	mov    %ecx,%edx
  1014ee:	29 c2                	sub    %eax,%edx
  1014f0:	5d                   	pop    %rbp
  1014f1:	c3                   	retq   

00000000001014f2 <ata_handler>:
  1014f2:	55                   	push   %rbp
  1014f3:	48 89 e5             	mov    %rsp,%rbp
  1014f6:	be 20 00 00 00       	mov    $0x20,%esi
  1014fb:	bf a0 00 00 00       	mov    $0xa0,%edi
  101500:	e8 16 ff ff ff       	callq  10141b <__outbyte>
  101505:	be 20 00 00 00       	mov    $0x20,%esi
  10150a:	bf 20 00 00 00       	mov    $0x20,%edi
  10150f:	e8 07 ff ff ff       	callq  10141b <__outbyte>
  101514:	5d                   	pop    %rbp
  101515:	c3                   	retq   

0000000000101516 <pagefault_handler>:
  101516:	55                   	push   %rbp
  101517:	48 89 e5             	mov    %rsp,%rbp
  10151a:	53                   	push   %rbx
  10151b:	48 83 ec 28          	sub    $0x28,%rsp
  10151f:	48 89 7d d8          	mov    %rdi,-0x28(%rbp)
  101523:	0f 20 d3             	mov    %cr2,%rbx
  101526:	48 89 5d e8          	mov    %rbx,-0x18(%rbp)
  10152a:	48 8b 45 e8          	mov    -0x18(%rbp),%rax
  10152e:	89 c2                	mov    %eax,%edx
  101530:	48 8b 45 d8          	mov    -0x28(%rbp),%rax
  101534:	b9 01 00 00 00       	mov    $0x1,%ecx
  101539:	be 0e 00 00 00       	mov    $0xe,%esi
  10153e:	48 89 c7             	mov    %rax,%rdi
  101541:	e8 08 12 00 00       	callq  10274e <bugcheck_system>
  101546:	48 83 c4 28          	add    $0x28,%rsp
  10154a:	5b                   	pop    %rbx
  10154b:	5d                   	pop    %rbp
  10154c:	c3                   	retq   

000000000010154d <doublefault_handler>:
  10154d:	55                   	push   %rbp
  10154e:	48 89 e5             	mov    %rsp,%rbp
  101551:	48 83 ec 10          	sub    $0x10,%rsp
  101555:	48 89 7d f8          	mov    %rdi,-0x8(%rbp)
  101559:	48 8b 45 f8          	mov    -0x8(%rbp),%rax
  10155d:	b9 00 00 00 00       	mov    $0x0,%ecx
  101562:	ba 00 00 00 00       	mov    $0x0,%edx
  101567:	be 08 00 00 00       	mov    $0x8,%esi
  10156c:	48 89 c7             	mov    %rax,%rdi
  10156f:	e8 da 11 00 00       	callq  10274e <bugcheck_system>
  101574:	c9                   	leaveq 
  101575:	c3                   	retq   

0000000000101576 <dividebyzero_handler>:
  101576:	55                   	push   %rbp
  101577:	48 89 e5             	mov    %rsp,%rbp
  10157a:	48 83 ec 10          	sub    $0x10,%rsp
  10157e:	48 89 7d f8          	mov    %rdi,-0x8(%rbp)
  101582:	48 8b 05 cf 6c 00 00 	mov    0x6ccf(%rip),%rax        # 108258 <gop>
  101589:	ba f8 54 10 00       	mov    $0x1054f8,%edx
  10158e:	be 00 00 ff ff       	mov    $0xffff0000,%esi
  101593:	48 89 c7             	mov    %rax,%rdi
  101596:	b8 00 00 00 00       	mov    $0x0,%eax
  10159b:	e8 d4 26 00 00       	callq  103c74 <gop_printf>
  1015a0:	c9                   	leaveq 
  1015a1:	c3                   	retq   

00000000001015a2 <debugsinglestep_handler>:
  1015a2:	55                   	push   %rbp
  1015a3:	48 89 e5             	mov    %rsp,%rbp
  1015a6:	48 83 ec 10          	sub    $0x10,%rsp
  1015aa:	48 89 7d f8          	mov    %rdi,-0x8(%rbp)
  1015ae:	48 8b 05 a3 6c 00 00 	mov    0x6ca3(%rip),%rax        # 108258 <gop>
  1015b5:	ba 28 55 10 00       	mov    $0x105528,%edx
  1015ba:	be 00 00 ff ff       	mov    $0xffff0000,%esi
  1015bf:	48 89 c7             	mov    %rax,%rdi
  1015c2:	b8 00 00 00 00       	mov    $0x0,%eax
  1015c7:	e8 a8 26 00 00       	callq  103c74 <gop_printf>
  1015cc:	e8 43 fe ff ff       	callq  101414 <__hlt>
  1015d1:	c9                   	leaveq 
  1015d2:	c3                   	retq   

00000000001015d3 <nmi_handler>:
  1015d3:	55                   	push   %rbp
  1015d4:	48 89 e5             	mov    %rsp,%rbp
  1015d7:	48 83 ec 10          	sub    $0x10,%rsp
  1015db:	48 89 7d f8          	mov    %rdi,-0x8(%rbp)
  1015df:	48 8b 45 f8          	mov    -0x8(%rbp),%rax
  1015e3:	b9 00 00 00 00       	mov    $0x0,%ecx
  1015e8:	ba 00 00 00 00       	mov    $0x0,%edx
  1015ed:	be 02 00 00 00       	mov    $0x2,%esi
  1015f2:	48 89 c7             	mov    %rax,%rdi
  1015f5:	e8 54 11 00 00       	callq  10274e <bugcheck_system>
  1015fa:	c9                   	leaveq 
  1015fb:	c3                   	retq   

00000000001015fc <breakpoint_handler>:
  1015fc:	55                   	push   %rbp
  1015fd:	48 89 e5             	mov    %rsp,%rbp
  101600:	48 83 ec 10          	sub    $0x10,%rsp
  101604:	48 89 7d f8          	mov    %rdi,-0x8(%rbp)
  101608:	48 8b 05 49 6c 00 00 	mov    0x6c49(%rip),%rax        # 108258 <gop>
  10160f:	ba 28 55 10 00       	mov    $0x105528,%edx
  101614:	be 00 00 ff ff       	mov    $0xffff0000,%esi
  101619:	48 89 c7             	mov    %rax,%rdi
  10161c:	b8 00 00 00 00       	mov    $0x0,%eax
  101621:	e8 4e 26 00 00       	callq  103c74 <gop_printf>
  101626:	e8 e9 fd ff ff       	callq  101414 <__hlt>
  10162b:	c9                   	leaveq 
  10162c:	c3                   	retq   

000000000010162d <overflow_handler>:
  10162d:	55                   	push   %rbp
  10162e:	48 89 e5             	mov    %rsp,%rbp
  101631:	48 83 ec 10          	sub    $0x10,%rsp
  101635:	48 89 7d f8          	mov    %rdi,-0x8(%rbp)
  101639:	48 8b 45 f8          	mov    -0x8(%rbp),%rax
  10163d:	b9 00 00 00 00       	mov    $0x0,%ecx
  101642:	ba 00 00 00 00       	mov    $0x0,%edx
  101647:	be 04 00 00 00       	mov    $0x4,%esi
  10164c:	48 89 c7             	mov    %rax,%rdi
  10164f:	e8 fa 10 00 00       	callq  10274e <bugcheck_system>
  101654:	c9                   	leaveq 
  101655:	c3                   	retq   

0000000000101656 <boundscheck_handler>:
  101656:	55                   	push   %rbp
  101657:	48 89 e5             	mov    %rsp,%rbp
  10165a:	48 83 ec 10          	sub    $0x10,%rsp
  10165e:	48 89 7d f8          	mov    %rdi,-0x8(%rbp)
  101662:	48 8b 45 f8          	mov    -0x8(%rbp),%rax
  101666:	b9 00 00 00 00       	mov    $0x0,%ecx
  10166b:	ba 00 00 00 00       	mov    $0x0,%edx
  101670:	be 05 00 00 00       	mov    $0x5,%esi
  101675:	48 89 c7             	mov    %rax,%rdi
  101678:	e8 d1 10 00 00       	callq  10274e <bugcheck_system>
  10167d:	c9                   	leaveq 
  10167e:	c3                   	retq   

000000000010167f <invalidopcode_handler>:
  10167f:	55                   	push   %rbp
  101680:	48 89 e5             	mov    %rsp,%rbp
  101683:	48 83 ec 10          	sub    $0x10,%rsp
  101687:	48 89 7d f8          	mov    %rdi,-0x8(%rbp)
  10168b:	48 8b 05 c6 6b 00 00 	mov    0x6bc6(%rip),%rax        # 108258 <gop>
  101692:	ba 60 55 10 00       	mov    $0x105560,%edx
  101697:	be 00 00 ff ff       	mov    $0xffff0000,%esi
  10169c:	48 89 c7             	mov    %rax,%rdi
  10169f:	b8 00 00 00 00       	mov    $0x0,%eax
  1016a4:	e8 cb 25 00 00       	callq  103c74 <gop_printf>
  1016a9:	c9                   	leaveq 
  1016aa:	c3                   	retq   

00000000001016ab <nocoprocessor_handler>:
  1016ab:	55                   	push   %rbp
  1016ac:	48 89 e5             	mov    %rsp,%rbp
  1016af:	48 83 ec 10          	sub    $0x10,%rsp
  1016b3:	48 89 7d f8          	mov    %rdi,-0x8(%rbp)
  1016b7:	48 8b 45 f8          	mov    -0x8(%rbp),%rax
  1016bb:	b9 00 00 00 00       	mov    $0x0,%ecx
  1016c0:	ba 00 00 00 00       	mov    $0x0,%edx
  1016c5:	be 07 00 00 00       	mov    $0x7,%esi
  1016ca:	48 89 c7             	mov    %rax,%rdi
  1016cd:	e8 7c 10 00 00       	callq  10274e <bugcheck_system>
  1016d2:	c9                   	leaveq 
  1016d3:	c3                   	retq   

00000000001016d4 <coprocessor_segment_overrun_handler>:
  1016d4:	55                   	push   %rbp
  1016d5:	48 89 e5             	mov    %rsp,%rbp
  1016d8:	48 83 ec 10          	sub    $0x10,%rsp
  1016dc:	48 89 7d f8          	mov    %rdi,-0x8(%rbp)
  1016e0:	48 8b 45 f8          	mov    -0x8(%rbp),%rax
  1016e4:	b9 00 00 00 00       	mov    $0x0,%ecx
  1016e9:	ba 00 00 00 00       	mov    $0x0,%edx
  1016ee:	be 09 00 00 00       	mov    $0x9,%esi
  1016f3:	48 89 c7             	mov    %rax,%rdi
  1016f6:	e8 53 10 00 00       	callq  10274e <bugcheck_system>
  1016fb:	c9                   	leaveq 
  1016fc:	c3                   	retq   

00000000001016fd <invalidtss_handler>:
  1016fd:	55                   	push   %rbp
  1016fe:	48 89 e5             	mov    %rsp,%rbp
  101701:	48 83 ec 10          	sub    $0x10,%rsp
  101705:	48 89 7d f8          	mov    %rdi,-0x8(%rbp)
  101709:	48 8b 45 f8          	mov    -0x8(%rbp),%rax
  10170d:	b9 00 00 00 00       	mov    $0x0,%ecx
  101712:	ba 00 00 00 00       	mov    $0x0,%edx
  101717:	be 0a 00 00 00       	mov    $0xa,%esi
  10171c:	48 89 c7             	mov    %rax,%rdi
  10171f:	e8 2a 10 00 00       	callq  10274e <bugcheck_system>
  101724:	c9                   	leaveq 
  101725:	c3                   	retq   

0000000000101726 <segment_selector_not_present_handler>:
  101726:	55                   	push   %rbp
  101727:	48 89 e5             	mov    %rsp,%rbp
  10172a:	48 83 ec 10          	sub    $0x10,%rsp
  10172e:	48 89 7d f8          	mov    %rdi,-0x8(%rbp)
  101732:	48 8b 45 f8          	mov    -0x8(%rbp),%rax
  101736:	b9 00 00 00 00       	mov    $0x0,%ecx
  10173b:	ba 00 00 00 00       	mov    $0x0,%edx
  101740:	be 0b 00 00 00       	mov    $0xb,%esi
  101745:	48 89 c7             	mov    %rax,%rdi
  101748:	e8 01 10 00 00       	callq  10274e <bugcheck_system>
  10174d:	c9                   	leaveq 
  10174e:	c3                   	retq   

000000000010174f <stack_segment_overrun_handler>:
  10174f:	55                   	push   %rbp
  101750:	48 89 e5             	mov    %rsp,%rbp
  101753:	48 83 ec 10          	sub    $0x10,%rsp
  101757:	48 89 7d f8          	mov    %rdi,-0x8(%rbp)
  10175b:	48 8b 45 f8          	mov    -0x8(%rbp),%rax
  10175f:	b9 00 00 00 00       	mov    $0x0,%ecx
  101764:	ba 00 00 00 00       	mov    $0x0,%edx
  101769:	be 0c 00 00 00       	mov    $0xc,%esi
  10176e:	48 89 c7             	mov    %rax,%rdi
  101771:	e8 d8 0f 00 00       	callq  10274e <bugcheck_system>
  101776:	c9                   	leaveq 
  101777:	c3                   	retq   

0000000000101778 <gpf_handler>:
  101778:	55                   	push   %rbp
  101779:	48 89 e5             	mov    %rsp,%rbp
  10177c:	48 83 ec 10          	sub    $0x10,%rsp
  101780:	48 89 7d f8          	mov    %rdi,-0x8(%rbp)
  101784:	48 8b 45 f8          	mov    -0x8(%rbp),%rax
  101788:	b9 00 00 00 00       	mov    $0x0,%ecx
  10178d:	ba 00 00 00 00       	mov    $0x0,%edx
  101792:	be 0d 00 00 00       	mov    $0xd,%esi
  101797:	48 89 c7             	mov    %rax,%rdi
  10179a:	e8 af 0f 00 00       	callq  10274e <bugcheck_system>
  10179f:	c9                   	leaveq 
  1017a0:	c3                   	retq   

00000000001017a1 <fpu_handler>:
  1017a1:	55                   	push   %rbp
  1017a2:	48 89 e5             	mov    %rsp,%rbp
  1017a5:	48 83 ec 10          	sub    $0x10,%rsp
  1017a9:	48 89 7d f8          	mov    %rdi,-0x8(%rbp)
  1017ad:	48 8b 05 a4 6a 00 00 	mov    0x6aa4(%rip),%rax        # 108258 <gop>
  1017b4:	ba 88 55 10 00       	mov    $0x105588,%edx
  1017b9:	be 00 00 ff ff       	mov    $0xffff0000,%esi
  1017be:	48 89 c7             	mov    %rax,%rdi
  1017c1:	b8 00 00 00 00       	mov    $0x0,%eax
  1017c6:	e8 a9 24 00 00       	callq  103c74 <gop_printf>
  1017cb:	c9                   	leaveq 
  1017cc:	c3                   	retq   

00000000001017cd <alignment_check_handler>:
  1017cd:	55                   	push   %rbp
  1017ce:	48 89 e5             	mov    %rsp,%rbp
  1017d1:	48 83 ec 10          	sub    $0x10,%rsp
  1017d5:	48 89 7d f8          	mov    %rdi,-0x8(%rbp)
  1017d9:	48 8b 45 f8          	mov    -0x8(%rbp),%rax
  1017dd:	b9 00 00 00 00       	mov    $0x0,%ecx
  1017e2:	ba 00 00 00 00       	mov    $0x0,%edx
  1017e7:	be 11 00 00 00       	mov    $0x11,%esi
  1017ec:	48 89 c7             	mov    %rax,%rdi
  1017ef:	e8 5a 0f 00 00       	callq  10274e <bugcheck_system>
  1017f4:	c9                   	leaveq 
  1017f5:	c3                   	retq   

00000000001017f6 <severe_machine_check_handler>:
  1017f6:	55                   	push   %rbp
  1017f7:	48 89 e5             	mov    %rsp,%rbp
  1017fa:	48 83 ec 10          	sub    $0x10,%rsp
  1017fe:	48 89 7d f8          	mov    %rdi,-0x8(%rbp)
  101802:	48 8b 45 f8          	mov    -0x8(%rbp),%rax
  101806:	b9 00 00 00 00       	mov    $0x0,%ecx
  10180b:	ba 00 00 00 00       	mov    $0x0,%edx
  101810:	be 12 00 00 00       	mov    $0x12,%esi
  101815:	48 89 c7             	mov    %rax,%rdi
  101818:	e8 31 0f 00 00       	callq  10274e <bugcheck_system>
  10181d:	c9                   	leaveq 
  10181e:	c3                   	retq   
	...

0000000000101820 <zero_bss>:
  101820:	55                   	push   %rbp
  101821:	48 89 e5             	mov    %rsp,%rbp
  101824:	48 c7 45 f8 38 71 10 	movq   $0x107138,-0x8(%rbp)
  10182b:	00 
  10182c:	eb 0c                	jmp    10183a <zero_bss+0x1a>
  10182e:	48 8b 45 f8          	mov    -0x8(%rbp),%rax
  101832:	c6 00 00             	movb   $0x0,(%rax)
  101835:	48 83 45 f8 01       	addq   $0x1,-0x8(%rbp)
  10183a:	48 81 7d f8 8a 92 10 	cmpq   $0x10928a,-0x8(%rbp)
  101841:	00 
  101842:	72 ea                	jb     10182e <zero_bss+0xe>
  101844:	5d                   	pop    %rbp
  101845:	c3                   	retq   

0000000000101846 <init_heap>:
  101846:	55                   	push   %rbp
  101847:	48 89 e5             	mov    %rsp,%rbp
  10184a:	b8 00 00 15 00       	mov    $0x150000,%eax
  10184f:	48 05 ff 0f 00 00    	add    $0xfff,%rax
  101855:	25 00 f0 ff ff       	and    $0xfffff000,%eax
  10185a:	48 89 05 ff 69 00 00 	mov    %rax,0x69ff(%rip)        # 108260 <heap_current_end>
  101861:	b8 00 00 15 00       	mov    $0x150000,%eax
  101866:	48 05 ff 0f 00 00    	add    $0xfff,%rax
  10186c:	25 00 f0 ff ff       	and    $0xfffff000,%eax
  101871:	48 89 45 f8          	mov    %rax,-0x8(%rbp)
  101875:	ba 00 00 10 00       	mov    $0x100000,%edx
  10187a:	b8 00 00 15 00       	mov    $0x150000,%eax
  10187f:	48 05 ff 0f 00 00    	add    $0xfff,%rax
  101885:	25 00 f0 ff ff       	and    $0xfffff000,%eax
  10188a:	48 89 d1             	mov    %rdx,%rcx
  10188d:	48 29 c1             	sub    %rax,%rcx
  101890:	48 89 c8             	mov    %rcx,%rax
  101893:	48 05 00 00 00 08    	add    $0x8000000,%rax
  101899:	48 89 45 f0          	mov    %rax,-0x10(%rbp)
  10189d:	48 8b 45 f8          	mov    -0x8(%rbp),%rax
  1018a1:	48 89 05 d0 58 00 00 	mov    %rax,0x58d0(%rip)        # 107178 <free_list>
  1018a8:	48 8b 05 c9 58 00 00 	mov    0x58c9(%rip),%rax        # 107178 <free_list>
  1018af:	48 8b 55 f0          	mov    -0x10(%rbp),%rdx
  1018b3:	48 89 10             	mov    %rdx,(%rax)
  1018b6:	48 8b 05 bb 58 00 00 	mov    0x58bb(%rip),%rax        # 107178 <free_list>
  1018bd:	48 c7 40 08 00 00 00 	movq   $0x0,0x8(%rax)
  1018c4:	00 
  1018c5:	5d                   	pop    %rbp
  1018c6:	c3                   	retq   

00000000001018c7 <grow_heap_by_one_page>:
  1018c7:	55                   	push   %rbp
  1018c8:	48 89 e5             	mov    %rsp,%rbp
  1018cb:	48 83 ec 10          	sub    $0x10,%rsp
  1018cf:	e8 14 13 00 00       	callq  102be8 <alloc_frame>
  1018d4:	48 89 45 f8          	mov    %rax,-0x8(%rbp)
  1018d8:	48 83 7d f8 00       	cmpq   $0x0,-0x8(%rbp)
  1018dd:	75 0a                	jne    1018e9 <grow_heap_by_one_page+0x22>
  1018df:	b8 00 00 00 00       	mov    $0x0,%eax
  1018e4:	e9 82 00 00 00       	jmpq   10196b <grow_heap_by_one_page+0xa4>
  1018e9:	48 8b 05 70 69 00 00 	mov    0x6970(%rip),%rax        # 108260 <heap_current_end>
  1018f0:	48 8b 4d f8          	mov    -0x8(%rbp),%rcx
  1018f4:	ba 03 00 00 00       	mov    $0x3,%edx
  1018f9:	48 89 ce             	mov    %rcx,%rsi
  1018fc:	48 89 c7             	mov    %rax,%rdi
  1018ff:	e8 d3 07 00 00       	callq  1020d7 <map_page>
  101904:	48 8b 05 55 69 00 00 	mov    0x6955(%rip),%rax        # 108260 <heap_current_end>
  10190b:	ba 00 10 00 00       	mov    $0x1000,%edx
  101910:	be 00 00 00 00       	mov    $0x0,%esi
  101915:	48 89 c7             	mov    %rax,%rdi
  101918:	e8 2e 01 00 00       	callq  101a4b <kmemset>
  10191d:	48 8b 05 3c 69 00 00 	mov    0x693c(%rip),%rax        # 108260 <heap_current_end>
  101924:	48 89 45 f0          	mov    %rax,-0x10(%rbp)
  101928:	48 8b 45 f0          	mov    -0x10(%rbp),%rax
  10192c:	48 c7 00 00 10 00 00 	movq   $0x1000,(%rax)
  101933:	48 8b 15 3e 58 00 00 	mov    0x583e(%rip),%rdx        # 107178 <free_list>
  10193a:	48 8b 45 f0          	mov    -0x10(%rbp),%rax
  10193e:	48 89 50 08          	mov    %rdx,0x8(%rax)
  101942:	48 8b 45 f0          	mov    -0x10(%rbp),%rax
  101946:	48 89 05 2b 58 00 00 	mov    %rax,0x582b(%rip)        # 107178 <free_list>
  10194d:	e8 fd 02 00 00       	callq  101c4f <coalesce_free_list>
  101952:	48 8b 05 07 69 00 00 	mov    0x6907(%rip),%rax        # 108260 <heap_current_end>
  101959:	48 05 00 10 00 00    	add    $0x1000,%rax
  10195f:	48 89 05 fa 68 00 00 	mov    %rax,0x68fa(%rip)        # 108260 <heap_current_end>
  101966:	b8 01 00 00 00       	mov    $0x1,%eax
  10196b:	c9                   	leaveq 
  10196c:	c3                   	retq   

000000000010196d <insert_block_sorted>:
  10196d:	55                   	push   %rbp
  10196e:	48 89 e5             	mov    %rsp,%rbp
  101971:	48 89 7d e8          	mov    %rdi,-0x18(%rbp)
  101975:	48 8b 05 fc 57 00 00 	mov    0x57fc(%rip),%rax        # 107178 <free_list>
  10197c:	48 85 c0             	test   %rax,%rax
  10197f:	74 0d                	je     10198e <insert_block_sorted+0x21>
  101981:	48 8b 05 f0 57 00 00 	mov    0x57f0(%rip),%rax        # 107178 <free_list>
  101988:	48 39 45 e8          	cmp    %rax,-0x18(%rbp)
  10198c:	73 1c                	jae    1019aa <insert_block_sorted+0x3d>
  10198e:	48 8b 15 e3 57 00 00 	mov    0x57e3(%rip),%rdx        # 107178 <free_list>
  101995:	48 8b 45 e8          	mov    -0x18(%rbp),%rax
  101999:	48 89 50 08          	mov    %rdx,0x8(%rax)
  10199d:	48 8b 45 e8          	mov    -0x18(%rbp),%rax
  1019a1:	48 89 05 d0 57 00 00 	mov    %rax,0x57d0(%rip)        # 107178 <free_list>
  1019a8:	eb 50                	jmp    1019fa <insert_block_sorted+0x8d>
  1019aa:	48 8b 05 c7 57 00 00 	mov    0x57c7(%rip),%rax        # 107178 <free_list>
  1019b1:	48 89 45 f8          	mov    %rax,-0x8(%rbp)
  1019b5:	eb 0c                	jmp    1019c3 <insert_block_sorted+0x56>
  1019b7:	48 8b 45 f8          	mov    -0x8(%rbp),%rax
  1019bb:	48 8b 40 08          	mov    0x8(%rax),%rax
  1019bf:	48 89 45 f8          	mov    %rax,-0x8(%rbp)
  1019c3:	48 8b 45 f8          	mov    -0x8(%rbp),%rax
  1019c7:	48 8b 40 08          	mov    0x8(%rax),%rax
  1019cb:	48 85 c0             	test   %rax,%rax
  1019ce:	74 0e                	je     1019de <insert_block_sorted+0x71>
  1019d0:	48 8b 45 f8          	mov    -0x8(%rbp),%rax
  1019d4:	48 8b 40 08          	mov    0x8(%rax),%rax
  1019d8:	48 3b 45 e8          	cmp    -0x18(%rbp),%rax
  1019dc:	72 d9                	jb     1019b7 <insert_block_sorted+0x4a>
  1019de:	48 8b 45 f8          	mov    -0x8(%rbp),%rax
  1019e2:	48 8b 50 08          	mov    0x8(%rax),%rdx
  1019e6:	48 8b 45 e8          	mov    -0x18(%rbp),%rax
  1019ea:	48 89 50 08          	mov    %rdx,0x8(%rax)
  1019ee:	48 8b 45 f8          	mov    -0x8(%rbp),%rax
  1019f2:	48 8b 55 e8          	mov    -0x18(%rbp),%rdx
  1019f6:	48 89 50 08          	mov    %rdx,0x8(%rax)
  1019fa:	5d                   	pop    %rbp
  1019fb:	c3                   	retq   

00000000001019fc <align_up>:
  1019fc:	55                   	push   %rbp
  1019fd:	48 89 e5             	mov    %rsp,%rbp
  101a00:	48 89 7d e8          	mov    %rdi,-0x18(%rbp)
  101a04:	48 89 75 e0          	mov    %rsi,-0x20(%rbp)
  101a08:	48 8b 45 e8          	mov    -0x18(%rbp),%rax
  101a0c:	48 89 45 f8          	mov    %rax,-0x8(%rbp)
  101a10:	48 8b 45 e0          	mov    -0x20(%rbp),%rax
  101a14:	48 83 e8 01          	sub    $0x1,%rax
  101a18:	48 89 45 f0          	mov    %rax,-0x10(%rbp)
  101a1c:	48 8b 45 f0          	mov    -0x10(%rbp),%rax
  101a20:	48 8b 55 f8          	mov    -0x8(%rbp),%rdx
  101a24:	48 21 d0             	and    %rdx,%rax
  101a27:	48 85 c0             	test   %rax,%rax
  101a2a:	74 19                	je     101a45 <align_up+0x49>
  101a2c:	48 8b 45 f0          	mov    -0x10(%rbp),%rax
  101a30:	48 8b 55 f8          	mov    -0x8(%rbp),%rdx
  101a34:	48 01 c2             	add    %rax,%rdx
  101a37:	48 8b 45 f0          	mov    -0x10(%rbp),%rax
  101a3b:	48 f7 d0             	not    %rax
  101a3e:	48 21 d0             	and    %rdx,%rax
  101a41:	48 89 45 f8          	mov    %rax,-0x8(%rbp)
  101a45:	48 8b 45 f8          	mov    -0x8(%rbp),%rax
  101a49:	5d                   	pop    %rbp
  101a4a:	c3                   	retq   

0000000000101a4b <kmemset>:
  101a4b:	55                   	push   %rbp
  101a4c:	48 89 e5             	mov    %rsp,%rbp
  101a4f:	48 89 7d e8          	mov    %rdi,-0x18(%rbp)
  101a53:	89 75 e4             	mov    %esi,-0x1c(%rbp)
  101a56:	89 55 e0             	mov    %edx,-0x20(%rbp)
  101a59:	48 8b 45 e8          	mov    -0x18(%rbp),%rax
  101a5d:	48 89 45 f0          	mov    %rax,-0x10(%rbp)
  101a61:	c7 45 fc 00 00 00 00 	movl   $0x0,-0x4(%rbp)
  101a68:	eb 10                	jmp    101a7a <kmemset+0x2f>
  101a6a:	8b 45 fc             	mov    -0x4(%rbp),%eax
  101a6d:	48 03 45 f0          	add    -0x10(%rbp),%rax
  101a71:	8b 55 e4             	mov    -0x1c(%rbp),%edx
  101a74:	88 10                	mov    %dl,(%rax)
  101a76:	83 45 fc 01          	addl   $0x1,-0x4(%rbp)
  101a7a:	8b 45 fc             	mov    -0x4(%rbp),%eax
  101a7d:	3b 45 e0             	cmp    -0x20(%rbp),%eax
  101a80:	72 e8                	jb     101a6a <kmemset+0x1f>
  101a82:	48 8b 45 e8          	mov    -0x18(%rbp),%rax
  101a86:	5d                   	pop    %rbp
  101a87:	c3                   	retq   

0000000000101a88 <kmemcpy>:
  101a88:	55                   	push   %rbp
  101a89:	48 89 e5             	mov    %rsp,%rbp
  101a8c:	48 89 7d d8          	mov    %rdi,-0x28(%rbp)
  101a90:	48 89 75 d0          	mov    %rsi,-0x30(%rbp)
  101a94:	89 55 cc             	mov    %edx,-0x34(%rbp)
  101a97:	48 8b 45 d8          	mov    -0x28(%rbp),%rax
  101a9b:	48 89 45 f0          	mov    %rax,-0x10(%rbp)
  101a9f:	48 8b 45 d0          	mov    -0x30(%rbp),%rax
  101aa3:	48 89 45 e8          	mov    %rax,-0x18(%rbp)
  101aa7:	c7 45 fc 00 00 00 00 	movl   $0x0,-0x4(%rbp)
  101aae:	eb 17                	jmp    101ac7 <kmemcpy+0x3f>
  101ab0:	8b 45 fc             	mov    -0x4(%rbp),%eax
  101ab3:	48 03 45 f0          	add    -0x10(%rbp),%rax
  101ab7:	8b 55 fc             	mov    -0x4(%rbp),%edx
  101aba:	48 03 55 e8          	add    -0x18(%rbp),%rdx
  101abe:	0f b6 12             	movzbl (%rdx),%edx
  101ac1:	88 10                	mov    %dl,(%rax)
  101ac3:	83 45 fc 01          	addl   $0x1,-0x4(%rbp)
  101ac7:	8b 45 fc             	mov    -0x4(%rbp),%eax
  101aca:	3b 45 cc             	cmp    -0x34(%rbp),%eax
  101acd:	72 e1                	jb     101ab0 <kmemcpy+0x28>
  101acf:	48 8b 45 d8          	mov    -0x28(%rbp),%rax
  101ad3:	5d                   	pop    %rbp
  101ad4:	c3                   	retq   

0000000000101ad5 <kmalloc>:
  101ad5:	55                   	push   %rbp
  101ad6:	48 89 e5             	mov    %rsp,%rbp
  101ad9:	48 83 ec 50          	sub    $0x50,%rsp
  101add:	48 89 7d b8          	mov    %rdi,-0x48(%rbp)
  101ae1:	48 89 75 b0          	mov    %rsi,-0x50(%rbp)
  101ae5:	48 8b 45 b0          	mov    -0x50(%rbp),%rax
  101ae9:	48 8b 55 b8          	mov    -0x48(%rbp),%rdx
  101aed:	48 01 d0             	add    %rdx,%rax
  101af0:	48 8d 50 ff          	lea    -0x1(%rax),%rdx
  101af4:	48 8b 45 b0          	mov    -0x50(%rbp),%rax
  101af8:	48 f7 d8             	neg    %rax
  101afb:	48 21 d0             	and    %rdx,%rax
  101afe:	48 89 45 f0          	mov    %rax,-0x10(%rbp)
  101b02:	48 8b 45 f0          	mov    -0x10(%rbp),%rax
  101b06:	48 83 c0 10          	add    $0x10,%rax
  101b0a:	48 89 45 e8          	mov    %rax,-0x18(%rbp)
  101b0e:	48 c7 45 f8 78 71 10 	movq   $0x107178,-0x8(%rbp)
  101b15:	00 
  101b16:	e9 d7 00 00 00       	jmpq   101bf2 <kmalloc+0x11d>
  101b1b:	48 8b 45 f8          	mov    -0x8(%rbp),%rax
  101b1f:	48 8b 00             	mov    (%rax),%rax
  101b22:	48 89 45 e0          	mov    %rax,-0x20(%rbp)
  101b26:	48 8b 45 e0          	mov    -0x20(%rbp),%rax
  101b2a:	48 8b 00             	mov    (%rax),%rax
  101b2d:	48 3b 45 e8          	cmp    -0x18(%rbp),%rax
  101b31:	0f 82 af 00 00 00    	jb     101be6 <kmalloc+0x111>
  101b37:	48 8b 45 e0          	mov    -0x20(%rbp),%rax
  101b3b:	48 8b 00             	mov    (%rax),%rax
  101b3e:	48 8b 55 b0          	mov    -0x50(%rbp),%rdx
  101b42:	48 8b 4d e8          	mov    -0x18(%rbp),%rcx
  101b46:	48 01 ca             	add    %rcx,%rdx
  101b49:	48 83 c2 10          	add    $0x10,%rdx
  101b4d:	48 39 d0             	cmp    %rdx,%rax
  101b50:	72 49                	jb     101b9b <kmalloc+0xc6>
  101b52:	48 8b 45 e0          	mov    -0x20(%rbp),%rax
  101b56:	48 03 45 e8          	add    -0x18(%rbp),%rax
  101b5a:	48 89 45 d8          	mov    %rax,-0x28(%rbp)
  101b5e:	48 8b 45 e0          	mov    -0x20(%rbp),%rax
  101b62:	48 8b 00             	mov    (%rax),%rax
  101b65:	48 89 c2             	mov    %rax,%rdx
  101b68:	48 2b 55 e8          	sub    -0x18(%rbp),%rdx
  101b6c:	48 8b 45 d8          	mov    -0x28(%rbp),%rax
  101b70:	48 89 10             	mov    %rdx,(%rax)
  101b73:	48 8b 45 e0          	mov    -0x20(%rbp),%rax
  101b77:	48 8b 50 08          	mov    0x8(%rax),%rdx
  101b7b:	48 8b 45 d8          	mov    -0x28(%rbp),%rax
  101b7f:	48 89 50 08          	mov    %rdx,0x8(%rax)
  101b83:	48 8b 45 e0          	mov    -0x20(%rbp),%rax
  101b87:	48 8b 55 e8          	mov    -0x18(%rbp),%rdx
  101b8b:	48 89 10             	mov    %rdx,(%rax)
  101b8e:	48 8b 45 f8          	mov    -0x8(%rbp),%rax
  101b92:	48 8b 55 d8          	mov    -0x28(%rbp),%rdx
  101b96:	48 89 10             	mov    %rdx,(%rax)
  101b99:	eb 0f                	jmp    101baa <kmalloc+0xd5>
  101b9b:	48 8b 45 e0          	mov    -0x20(%rbp),%rax
  101b9f:	48 8b 50 08          	mov    0x8(%rax),%rdx
  101ba3:	48 8b 45 f8          	mov    -0x8(%rbp),%rax
  101ba7:	48 89 10             	mov    %rdx,(%rax)
  101baa:	48 8b 45 e0          	mov    -0x20(%rbp),%rax
  101bae:	48 83 c0 10          	add    $0x10,%rax
  101bb2:	48 89 45 d0          	mov    %rax,-0x30(%rbp)
  101bb6:	48 8b 45 d0          	mov    -0x30(%rbp),%rax
  101bba:	48 83 c0 08          	add    $0x8,%rax
  101bbe:	48 8b 55 b0          	mov    -0x50(%rbp),%rdx
  101bc2:	48 89 d6             	mov    %rdx,%rsi
  101bc5:	48 89 c7             	mov    %rax,%rdi
  101bc8:	e8 2f fe ff ff       	callq  1019fc <align_up>
  101bcd:	48 89 45 c8          	mov    %rax,-0x38(%rbp)
  101bd1:	48 8b 45 c8          	mov    -0x38(%rbp),%rax
  101bd5:	48 8d 50 f8          	lea    -0x8(%rax),%rdx
  101bd9:	48 8b 45 e0          	mov    -0x20(%rbp),%rax
  101bdd:	48 89 02             	mov    %rax,(%rdx)
  101be0:	48 8b 45 c8          	mov    -0x38(%rbp),%rax
  101be4:	eb 67                	jmp    101c4d <kmalloc+0x178>
  101be6:	48 8b 45 e0          	mov    -0x20(%rbp),%rax
  101bea:	48 83 c0 08          	add    $0x8,%rax
  101bee:	48 89 45 f8          	mov    %rax,-0x8(%rbp)
  101bf2:	48 8b 45 f8          	mov    -0x8(%rbp),%rax
  101bf6:	48 8b 00             	mov    (%rax),%rax
  101bf9:	48 85 c0             	test   %rax,%rax
  101bfc:	0f 85 19 ff ff ff    	jne    101b1b <kmalloc+0x46>
  101c02:	48 8b 45 f8          	mov    -0x8(%rbp),%rax
  101c06:	48 8b 00             	mov    (%rax),%rax
  101c09:	48 85 c0             	test   %rax,%rax
  101c0c:	75 3a                	jne    101c48 <kmalloc+0x173>
  101c0e:	48 8b 05 4b 66 00 00 	mov    0x664b(%rip),%rax        # 108260 <heap_current_end>
  101c15:	48 8d 90 00 10 00 00 	lea    0x1000(%rax),%rdx
  101c1c:	b8 00 00 10 00       	mov    $0x100000,%eax
  101c21:	48 05 00 00 00 08    	add    $0x8000000,%rax
  101c27:	48 39 c2             	cmp    %rax,%rdx
  101c2a:	77 1c                	ja     101c48 <kmalloc+0x173>
  101c2c:	e8 96 fc ff ff       	callq  1018c7 <grow_heap_by_one_page>
  101c31:	84 c0                	test   %al,%al
  101c33:	74 13                	je     101c48 <kmalloc+0x173>
  101c35:	48 8b 55 b0          	mov    -0x50(%rbp),%rdx
  101c39:	48 8b 45 b8          	mov    -0x48(%rbp),%rax
  101c3d:	48 89 d6             	mov    %rdx,%rsi
  101c40:	48 89 c7             	mov    %rax,%rdi
  101c43:	e8 8d fe ff ff       	callq  101ad5 <kmalloc>
  101c48:	b8 00 00 00 00       	mov    $0x0,%eax
  101c4d:	c9                   	leaveq 
  101c4e:	c3                   	retq   

0000000000101c4f <coalesce_free_list>:
  101c4f:	55                   	push   %rbp
  101c50:	48 89 e5             	mov    %rsp,%rbp
  101c53:	48 8b 05 1e 55 00 00 	mov    0x551e(%rip),%rax        # 107178 <free_list>
  101c5a:	48 89 45 f8          	mov    %rax,-0x8(%rbp)
  101c5e:	eb 5e                	jmp    101cbe <coalesce_free_list+0x6f>
  101c60:	48 8b 45 f8          	mov    -0x8(%rbp),%rax
  101c64:	48 8b 10             	mov    (%rax),%rdx
  101c67:	48 8b 45 f8          	mov    -0x8(%rbp),%rax
  101c6b:	48 01 d0             	add    %rdx,%rax
  101c6e:	48 89 45 f0          	mov    %rax,-0x10(%rbp)
  101c72:	48 8b 45 f8          	mov    -0x8(%rbp),%rax
  101c76:	48 8b 40 08          	mov    0x8(%rax),%rax
  101c7a:	48 3b 45 f0          	cmp    -0x10(%rbp),%rax
  101c7e:	75 32                	jne    101cb2 <coalesce_free_list+0x63>
  101c80:	48 8b 45 f8          	mov    -0x8(%rbp),%rax
  101c84:	48 8b 10             	mov    (%rax),%rdx
  101c87:	48 8b 45 f8          	mov    -0x8(%rbp),%rax
  101c8b:	48 8b 40 08          	mov    0x8(%rax),%rax
  101c8f:	48 8b 00             	mov    (%rax),%rax
  101c92:	48 01 c2             	add    %rax,%rdx
  101c95:	48 8b 45 f8          	mov    -0x8(%rbp),%rax
  101c99:	48 89 10             	mov    %rdx,(%rax)
  101c9c:	48 8b 45 f8          	mov    -0x8(%rbp),%rax
  101ca0:	48 8b 40 08          	mov    0x8(%rax),%rax
  101ca4:	48 8b 50 08          	mov    0x8(%rax),%rdx
  101ca8:	48 8b 45 f8          	mov    -0x8(%rbp),%rax
  101cac:	48 89 50 08          	mov    %rdx,0x8(%rax)
  101cb0:	eb 0c                	jmp    101cbe <coalesce_free_list+0x6f>
  101cb2:	48 8b 45 f8          	mov    -0x8(%rbp),%rax
  101cb6:	48 8b 40 08          	mov    0x8(%rax),%rax
  101cba:	48 89 45 f8          	mov    %rax,-0x8(%rbp)
  101cbe:	48 83 7d f8 00       	cmpq   $0x0,-0x8(%rbp)
  101cc3:	74 0d                	je     101cd2 <coalesce_free_list+0x83>
  101cc5:	48 8b 45 f8          	mov    -0x8(%rbp),%rax
  101cc9:	48 8b 40 08          	mov    0x8(%rax),%rax
  101ccd:	48 85 c0             	test   %rax,%rax
  101cd0:	75 8e                	jne    101c60 <coalesce_free_list+0x11>
  101cd2:	5d                   	pop    %rbp
  101cd3:	c3                   	retq   

0000000000101cd4 <kfree>:
  101cd4:	55                   	push   %rbp
  101cd5:	48 89 e5             	mov    %rsp,%rbp
  101cd8:	48 83 ec 18          	sub    $0x18,%rsp
  101cdc:	48 89 7d e8          	mov    %rdi,-0x18(%rbp)
  101ce0:	48 83 7d e8 00       	cmpq   $0x0,-0x18(%rbp)
  101ce5:	74 3e                	je     101d25 <kfree+0x51>
  101ce7:	48 8b 45 e8          	mov    -0x18(%rbp),%rax
  101ceb:	48 8b 40 f8          	mov    -0x8(%rax),%rax
  101cef:	48 89 45 f8          	mov    %rax,-0x8(%rbp)
  101cf3:	48 8b 45 f8          	mov    -0x8(%rbp),%rax
  101cf7:	48 8b 00             	mov    (%rax),%rax
  101cfa:	8d 50 f0             	lea    -0x10(%rax),%edx
  101cfd:	48 8b 45 f8          	mov    -0x8(%rbp),%rax
  101d01:	48 83 c0 10          	add    $0x10,%rax
  101d05:	be 00 00 00 00       	mov    $0x0,%esi
  101d0a:	48 89 c7             	mov    %rax,%rdi
  101d0d:	e8 39 fd ff ff       	callq  101a4b <kmemset>
  101d12:	48 8b 45 f8          	mov    -0x8(%rbp),%rax
  101d16:	48 89 c7             	mov    %rax,%rdi
  101d19:	e8 4f fc ff ff       	callq  10196d <insert_block_sorted>
  101d1e:	e8 2c ff ff ff       	callq  101c4f <coalesce_free_list>
  101d23:	eb 01                	jmp    101d26 <kfree+0x52>
  101d25:	90                   	nop
  101d26:	c9                   	leaveq 
  101d27:	c3                   	retq   

0000000000101d28 <__cli>:
  101d28:	55                   	push   %rbp
  101d29:	48 89 e5             	mov    %rsp,%rbp
  101d2c:	fa                   	cli    
  101d2d:	5d                   	pop    %rbp
  101d2e:	c3                   	retq   

0000000000101d2f <__hlt>:
  101d2f:	55                   	push   %rbp
  101d30:	48 89 e5             	mov    %rsp,%rbp
  101d33:	f4                   	hlt    
  101d34:	5d                   	pop    %rbp
  101d35:	c3                   	retq   

0000000000101d36 <invlpg>:
  101d36:	55                   	push   %rbp
  101d37:	48 89 e5             	mov    %rsp,%rbp
  101d3a:	53                   	push   %rbx
  101d3b:	48 89 7d f0          	mov    %rdi,-0x10(%rbp)
  101d3f:	48 8b 45 f0          	mov    -0x10(%rbp),%rax
  101d43:	48 89 c3             	mov    %rax,%rbx
  101d46:	0f 01 3b             	invlpg (%rbx)
  101d49:	5b                   	pop    %rbx
  101d4a:	5d                   	pop    %rbp
  101d4b:	c3                   	retq   

0000000000101d4c <allocate_page_table>:
  101d4c:	55                   	push   %rbp
  101d4d:	48 89 e5             	mov    %rsp,%rbp
  101d50:	48 83 ec 10          	sub    $0x10,%rsp
  101d54:	48 8b 05 cd 53 00 00 	mov    0x53cd(%rip),%rax        # 107128 <next_pt>
  101d5b:	48 8d 90 00 10 00 00 	lea    0x1000(%rax),%rdx
  101d62:	48 8b 05 6f 3e 00 00 	mov    0x3e6f(%rip),%rax        # 105bd8 <end_pt>
  101d69:	48 39 c2             	cmp    %rax,%rdx
  101d6c:	77 3b                	ja     101da9 <allocate_page_table+0x5d>
  101d6e:	48 8b 05 b3 53 00 00 	mov    0x53b3(%rip),%rax        # 107128 <next_pt>
  101d75:	48 89 45 f8          	mov    %rax,-0x8(%rbp)
  101d79:	48 8b 05 a8 53 00 00 	mov    0x53a8(%rip),%rax        # 107128 <next_pt>
  101d80:	48 05 00 10 00 00    	add    $0x1000,%rax
  101d86:	48 89 05 9b 53 00 00 	mov    %rax,0x539b(%rip)        # 107128 <next_pt>
  101d8d:	48 8b 45 f8          	mov    -0x8(%rbp),%rax
  101d91:	ba 00 10 00 00       	mov    $0x1000,%edx
  101d96:	be 00 00 00 00       	mov    $0x0,%esi
  101d9b:	48 89 c7             	mov    %rax,%rdi
  101d9e:	e8 a8 fc ff ff       	callq  101a4b <kmemset>
  101da3:	48 8b 45 f8          	mov    -0x8(%rbp),%rax
  101da7:	eb 4a                	jmp    101df3 <allocate_page_table+0xa7>
  101da9:	e8 3a 0e 00 00       	callq  102be8 <alloc_frame>
  101dae:	48 89 45 f0          	mov    %rax,-0x10(%rbp)
  101db2:	48 83 7d f0 00       	cmpq   $0x0,-0x10(%rbp)
  101db7:	75 20                	jne    101dd9 <allocate_page_table+0x8d>
  101db9:	b9 01 00 00 00       	mov    $0x1,%ecx
  101dbe:	ba 00 00 00 00       	mov    $0x0,%edx
  101dc3:	be ad 0b 00 00       	mov    $0xbad,%esi
  101dc8:	bf 00 00 00 00       	mov    $0x0,%edi
  101dcd:	e8 7c 09 00 00       	callq  10274e <bugcheck_system>
  101dd2:	b8 00 00 00 00       	mov    $0x0,%eax
  101dd7:	eb 1a                	jmp    101df3 <allocate_page_table+0xa7>
  101dd9:	48 8b 45 f0          	mov    -0x10(%rbp),%rax
  101ddd:	ba 00 10 00 00       	mov    $0x1000,%edx
  101de2:	be 00 00 00 00       	mov    $0x0,%esi
  101de7:	48 89 c7             	mov    %rax,%rdi
  101dea:	e8 5c fc ff ff       	callq  101a4b <kmemset>
  101def:	48 8b 45 f0          	mov    -0x10(%rbp),%rax
  101df3:	c9                   	leaveq 
  101df4:	c3                   	retq   

0000000000101df5 <get_pml4_index>:
  101df5:	55                   	push   %rbp
  101df6:	48 89 e5             	mov    %rsp,%rbp
  101df9:	48 89 7d f8          	mov    %rdi,-0x8(%rbp)
  101dfd:	48 8b 45 f8          	mov    -0x8(%rbp),%rax
  101e01:	48 c1 e8 27          	shr    $0x27,%rax
  101e05:	25 ff 01 00 00       	and    $0x1ff,%eax
  101e0a:	5d                   	pop    %rbp
  101e0b:	c3                   	retq   

0000000000101e0c <get_pdpt_index>:
  101e0c:	55                   	push   %rbp
  101e0d:	48 89 e5             	mov    %rsp,%rbp
  101e10:	48 89 7d f8          	mov    %rdi,-0x8(%rbp)
  101e14:	48 8b 45 f8          	mov    -0x8(%rbp),%rax
  101e18:	48 c1 e8 1e          	shr    $0x1e,%rax
  101e1c:	25 ff 01 00 00       	and    $0x1ff,%eax
  101e21:	5d                   	pop    %rbp
  101e22:	c3                   	retq   

0000000000101e23 <get_pd_index>:
  101e23:	55                   	push   %rbp
  101e24:	48 89 e5             	mov    %rsp,%rbp
  101e27:	48 89 7d f8          	mov    %rdi,-0x8(%rbp)
  101e2b:	48 8b 45 f8          	mov    -0x8(%rbp),%rax
  101e2f:	48 c1 e8 15          	shr    $0x15,%rax
  101e33:	25 ff 01 00 00       	and    $0x1ff,%eax
  101e38:	5d                   	pop    %rbp
  101e39:	c3                   	retq   

0000000000101e3a <get_pt_index>:
  101e3a:	55                   	push   %rbp
  101e3b:	48 89 e5             	mov    %rsp,%rbp
  101e3e:	48 89 7d f8          	mov    %rdi,-0x8(%rbp)
  101e42:	48 8b 45 f8          	mov    -0x8(%rbp),%rax
  101e46:	48 c1 e8 0c          	shr    $0xc,%rax
  101e4a:	25 ff 01 00 00       	and    $0x1ff,%eax
  101e4f:	5d                   	pop    %rbp
  101e50:	c3                   	retq   

0000000000101e51 <map_range_identity>:
  101e51:	55                   	push   %rbp
  101e52:	48 89 e5             	mov    %rsp,%rbp
  101e55:	48 83 ec 30          	sub    $0x30,%rsp
  101e59:	48 89 7d e8          	mov    %rdi,-0x18(%rbp)
  101e5d:	48 89 75 e0          	mov    %rsi,-0x20(%rbp)
  101e61:	48 89 55 d8          	mov    %rdx,-0x28(%rbp)
  101e65:	48 8b 45 e8          	mov    -0x18(%rbp),%rax
  101e69:	48 89 45 f8          	mov    %rax,-0x8(%rbp)
  101e6d:	eb 1f                	jmp    101e8e <map_range_identity+0x3d>
  101e6f:	48 8b 4d f8          	mov    -0x8(%rbp),%rcx
  101e73:	48 8b 45 f8          	mov    -0x8(%rbp),%rax
  101e77:	48 8b 55 d8          	mov    -0x28(%rbp),%rdx
  101e7b:	48 89 ce             	mov    %rcx,%rsi
  101e7e:	48 89 c7             	mov    %rax,%rdi
  101e81:	e8 51 02 00 00       	callq  1020d7 <map_page>
  101e86:	48 81 45 f8 00 10 00 	addq   $0x1000,-0x8(%rbp)
  101e8d:	00 
  101e8e:	48 8b 45 f8          	mov    -0x8(%rbp),%rax
  101e92:	48 3b 45 e0          	cmp    -0x20(%rbp),%rax
  101e96:	72 d7                	jb     101e6f <map_range_identity+0x1e>
  101e98:	c9                   	leaveq 
  101e99:	c3                   	retq   

0000000000101e9a <paging_init>:
  101e9a:	55                   	push   %rbp
  101e9b:	48 89 e5             	mov    %rsp,%rbp
  101e9e:	48 83 ec 40          	sub    $0x40,%rsp
  101ea2:	48 8b 05 77 52 00 00 	mov    0x5277(%rip),%rax        # 107120 <pml4>
  101ea9:	ba 00 10 00 00       	mov    $0x1000,%edx
  101eae:	be 00 00 00 00       	mov    $0x0,%esi
  101eb3:	48 89 c7             	mov    %rax,%rdi
  101eb6:	e8 90 fb ff ff       	callq  101a4b <kmemset>
  101ebb:	e8 8c fe ff ff       	callq  101d4c <allocate_page_table>
  101ec0:	48 89 45 f8          	mov    %rax,-0x8(%rbp)
  101ec4:	e8 83 fe ff ff       	callq  101d4c <allocate_page_table>
  101ec9:	48 89 45 f0          	mov    %rax,-0x10(%rbp)
  101ecd:	e8 7a fe ff ff       	callq  101d4c <allocate_page_table>
  101ed2:	48 89 45 e8          	mov    %rax,-0x18(%rbp)
  101ed6:	48 83 7d f8 00       	cmpq   $0x0,-0x8(%rbp)
  101edb:	74 0e                	je     101eeb <paging_init+0x51>
  101edd:	48 83 7d f0 00       	cmpq   $0x0,-0x10(%rbp)
  101ee2:	74 07                	je     101eeb <paging_init+0x51>
  101ee4:	48 83 7d e8 00       	cmpq   $0x0,-0x18(%rbp)
  101ee9:	75 2e                	jne    101f19 <paging_init+0x7f>
  101eeb:	48 8b 05 66 63 00 00 	mov    0x6366(%rip),%rax        # 108258 <gop>
  101ef2:	41 b8 00 00 ff ff    	mov    $0xffff0000,%r8d
  101ef8:	b9 32 00 00 00       	mov    $0x32,%ecx
  101efd:	ba 32 00 00 00       	mov    $0x32,%edx
  101f02:	be e0 5b 10 00       	mov    $0x105be0,%esi
  101f07:	48 89 c7             	mov    %rax,%rdi
  101f0a:	e8 af 18 00 00       	callq  1037be <draw_string>
  101f0f:	e8 14 fe ff ff       	callq  101d28 <__cli>
  101f14:	e8 16 fe ff ff       	callq  101d2f <__hlt>
  101f19:	48 8b 05 00 52 00 00 	mov    0x5200(%rip),%rax        # 107120 <pml4>
  101f20:	48 8b 55 f8          	mov    -0x8(%rbp),%rdx
  101f24:	48 83 ca 03          	or     $0x3,%rdx
  101f28:	48 89 10             	mov    %rdx,(%rax)
  101f2b:	48 8b 45 f0          	mov    -0x10(%rbp),%rax
  101f2f:	48 89 c2             	mov    %rax,%rdx
  101f32:	48 83 ca 03          	or     $0x3,%rdx
  101f36:	48 8b 45 f8          	mov    -0x8(%rbp),%rax
  101f3a:	48 89 10             	mov    %rdx,(%rax)
  101f3d:	48 8b 45 e8          	mov    -0x18(%rbp),%rax
  101f41:	48 89 c2             	mov    %rax,%rdx
  101f44:	48 83 ca 03          	or     $0x3,%rdx
  101f48:	48 8b 45 f0          	mov    -0x10(%rbp),%rax
  101f4c:	48 89 10             	mov    %rdx,(%rax)
  101f4f:	ba 03 00 00 00       	mov    $0x3,%edx
  101f54:	be 00 00 40 00       	mov    $0x400000,%esi
  101f59:	bf 00 00 00 00       	mov    $0x0,%edi
  101f5e:	e8 ee fe ff ff       	callq  101e51 <map_range_identity>
  101f63:	b8 00 a0 10 00       	mov    $0x10a000,%eax
  101f68:	48 8d 88 00 10 00 00 	lea    0x1000(%rax),%rcx
  101f6f:	b8 00 a0 10 00       	mov    $0x10a000,%eax
  101f74:	ba 03 00 00 00       	mov    $0x3,%edx
  101f79:	48 89 ce             	mov    %rcx,%rsi
  101f7c:	48 89 c7             	mov    %rax,%rdi
  101f7f:	e8 cd fe ff ff       	callq  101e51 <map_range_identity>
  101f84:	0f b6 05 75 e0 04 00 	movzbl 0x4e075(%rip),%eax        # 150000 <__stack_end>
  101f8b:	0f b6 c8             	movzbl %al,%ecx
  101f8e:	0f b6 05 6b e0 ff ff 	movzbl -0x1f95(%rip),%eax        # 100000 <_start>
  101f95:	0f b6 c0             	movzbl %al,%eax
  101f98:	ba 03 00 00 00       	mov    $0x3,%edx
  101f9d:	48 89 ce             	mov    %rcx,%rsi
  101fa0:	48 89 c7             	mov    %rax,%rdi
  101fa3:	e8 a9 fe ff ff       	callq  101e51 <map_range_identity>
  101fa8:	ba 03 00 00 00       	mov    $0x3,%edx
  101fad:	be 00 00 e1 07       	mov    $0x7e10000,%esi
  101fb2:	bf 00 00 e0 07       	mov    $0x7e00000,%edi
  101fb7:	e8 95 fe ff ff       	callq  101e51 <map_range_identity>
  101fbc:	b9 00 00 15 00       	mov    $0x150000,%ecx
  101fc1:	b8 00 c0 14 00       	mov    $0x14c000,%eax
  101fc6:	ba 03 00 00 00       	mov    $0x3,%edx
  101fcb:	48 89 ce             	mov    %rcx,%rsi
  101fce:	48 89 c7             	mov    %rax,%rdi
  101fd1:	e8 7b fe ff ff       	callq  101e51 <map_range_identity>
  101fd6:	48 8b 05 7b 62 00 00 	mov    0x627b(%rip),%rax        # 108258 <gop>
  101fdd:	48 8b 00             	mov    (%rax),%rax
  101fe0:	48 89 45 e0          	mov    %rax,-0x20(%rbp)
  101fe4:	48 8b 05 6d 62 00 00 	mov    0x626d(%rip),%rax        # 108258 <gop>
  101feb:	8b 50 18             	mov    0x18(%rax),%edx
  101fee:	48 8b 05 63 62 00 00 	mov    0x6263(%rip),%rax        # 108258 <gop>
  101ff5:	8b 40 14             	mov    0x14(%rax),%eax
  101ff8:	0f af c2             	imul   %edx,%eax
  101ffb:	c1 e0 02             	shl    $0x2,%eax
  101ffe:	89 c0                	mov    %eax,%eax
  102000:	48 03 45 e0          	add    -0x20(%rbp),%rax
  102004:	48 89 45 d8          	mov    %rax,-0x28(%rbp)
  102008:	48 8b 4d d8          	mov    -0x28(%rbp),%rcx
  10200c:	48 8b 45 e0          	mov    -0x20(%rbp),%rax
  102010:	ba 03 00 00 00       	mov    $0x3,%edx
  102015:	48 89 ce             	mov    %rcx,%rsi
  102018:	48 89 c7             	mov    %rax,%rdi
  10201b:	e8 31 fe ff ff       	callq  101e51 <map_range_identity>
  102020:	48 8b 05 29 62 00 00 	mov    0x6229(%rip),%rax        # 108250 <boot_info_global>
  102027:	48 8d 88 00 10 00 00 	lea    0x1000(%rax),%rcx
  10202e:	48 8b 05 1b 62 00 00 	mov    0x621b(%rip),%rax        # 108250 <boot_info_global>
  102035:	ba 03 00 00 00       	mov    $0x3,%edx
  10203a:	48 89 ce             	mov    %rcx,%rsi
  10203d:	48 89 c7             	mov    %rax,%rdi
  102040:	e8 0c fe ff ff       	callq  101e51 <map_range_identity>
  102045:	48 c7 45 d0 80 82 10 	movq   $0x108280,-0x30(%rbp)
  10204c:	00 
  10204d:	48 8b 45 d0          	mov    -0x30(%rbp),%rax
  102051:	48 8d 88 00 10 00 00 	lea    0x1000(%rax),%rcx
  102058:	48 8b 45 d0          	mov    -0x30(%rbp),%rax
  10205c:	ba 03 00 00 00       	mov    $0x3,%edx
  102061:	48 89 ce             	mov    %rcx,%rsi
  102064:	48 89 c7             	mov    %rax,%rdi
  102067:	e8 e5 fd ff ff       	callq  101e51 <map_range_identity>
  10206c:	48 8b 05 e5 61 00 00 	mov    0x61e5(%rip),%rax        # 108258 <gop>
  102073:	41 b8 00 ff 00 ff    	mov    $0xff00ff00,%r8d
  102079:	b9 64 00 00 00       	mov    $0x64,%ecx
  10207e:	ba 64 00 00 00       	mov    $0x64,%edx
  102083:	be 08 5c 10 00       	mov    $0x105c08,%esi
  102088:	48 89 c7             	mov    %rax,%rdi
  10208b:	e8 2e 17 00 00       	callq  1037be <draw_string>
  102090:	48 8b 05 89 50 00 00 	mov    0x5089(%rip),%rax        # 107120 <pml4>
  102097:	48 89 45 c8          	mov    %rax,-0x38(%rbp)
  10209b:	48 8b 45 c8          	mov    -0x38(%rbp),%rax
  10209f:	48 89 c7             	mov    %rax,%rdi
  1020a2:	e8 c9 22 00 00       	callq  104370 <enable_paging>
  1020a7:	48 8b 05 aa 61 00 00 	mov    0x61aa(%rip),%rax        # 108258 <gop>
  1020ae:	41 b8 ff 00 00 ff    	mov    $0xff0000ff,%r8d
  1020b4:	b9 64 00 00 00       	mov    $0x64,%ecx
  1020b9:	ba 64 00 00 00       	mov    $0x64,%edx
  1020be:	be 2b 5c 10 00       	mov    $0x105c2b,%esi
  1020c3:	48 89 c7             	mov    %rax,%rdi
  1020c6:	e8 f3 16 00 00       	callq  1037be <draw_string>
  1020cb:	e8 58 fc ff ff       	callq  101d28 <__cli>
  1020d0:	e8 5a fc ff ff       	callq  101d2f <__hlt>
  1020d5:	c9                   	leaveq 
  1020d6:	c3                   	retq   

00000000001020d7 <map_page>:
  1020d7:	55                   	push   %rbp
  1020d8:	48 89 e5             	mov    %rsp,%rbp
  1020db:	53                   	push   %rbx
  1020dc:	48 83 ec 78          	sub    $0x78,%rsp
  1020e0:	48 89 7d 98          	mov    %rdi,-0x68(%rbp)
  1020e4:	48 89 75 90          	mov    %rsi,-0x70(%rbp)
  1020e8:	48 89 55 88          	mov    %rdx,-0x78(%rbp)
  1020ec:	48 8b 45 98          	mov    -0x68(%rbp),%rax
  1020f0:	48 89 45 d0          	mov    %rax,-0x30(%rbp)
  1020f4:	48 8b 45 90          	mov    -0x70(%rbp),%rax
  1020f8:	48 89 45 c8          	mov    %rax,-0x38(%rbp)
  1020fc:	48 8b 45 d0          	mov    -0x30(%rbp),%rax
  102100:	48 89 c7             	mov    %rax,%rdi
  102103:	e8 ed fc ff ff       	callq  101df5 <get_pml4_index>
  102108:	48 89 45 c0          	mov    %rax,-0x40(%rbp)
  10210c:	48 8b 45 d0          	mov    -0x30(%rbp),%rax
  102110:	48 89 c7             	mov    %rax,%rdi
  102113:	e8 f4 fc ff ff       	callq  101e0c <get_pdpt_index>
  102118:	48 89 45 b8          	mov    %rax,-0x48(%rbp)
  10211c:	48 8b 45 d0          	mov    -0x30(%rbp),%rax
  102120:	48 89 c7             	mov    %rax,%rdi
  102123:	e8 fb fc ff ff       	callq  101e23 <get_pd_index>
  102128:	48 89 45 b0          	mov    %rax,-0x50(%rbp)
  10212c:	48 8b 45 d0          	mov    -0x30(%rbp),%rax
  102130:	48 89 c7             	mov    %rax,%rdi
  102133:	e8 02 fd ff ff       	callq  101e3a <get_pt_index>
  102138:	48 89 45 a8          	mov    %rax,-0x58(%rbp)
  10213c:	48 8b 05 dd 4f 00 00 	mov    0x4fdd(%rip),%rax        # 107120 <pml4>
  102143:	48 8b 55 c0          	mov    -0x40(%rbp),%rdx
  102147:	48 c1 e2 03          	shl    $0x3,%rdx
  10214b:	48 01 d0             	add    %rdx,%rax
  10214e:	48 8b 00             	mov    (%rax),%rax
  102151:	83 e0 01             	and    $0x1,%eax
  102154:	48 85 c0             	test   %rax,%rax
  102157:	75 33                	jne    10218c <map_page+0xb5>
  102159:	e8 ee fb ff ff       	callq  101d4c <allocate_page_table>
  10215e:	48 89 45 e8          	mov    %rax,-0x18(%rbp)
  102162:	48 83 7d e8 00       	cmpq   $0x0,-0x18(%rbp)
  102167:	0f 84 46 01 00 00    	je     1022b3 <map_page+0x1dc>
  10216d:	48 8b 05 ac 4f 00 00 	mov    0x4fac(%rip),%rax        # 107120 <pml4>
  102174:	48 8b 55 c0          	mov    -0x40(%rbp),%rdx
  102178:	48 c1 e2 03          	shl    $0x3,%rdx
  10217c:	48 01 d0             	add    %rdx,%rax
  10217f:	48 8b 55 e8          	mov    -0x18(%rbp),%rdx
  102183:	48 83 ca 07          	or     $0x7,%rdx
  102187:	48 89 10             	mov    %rdx,(%rax)
  10218a:	eb 1f                	jmp    1021ab <map_page+0xd4>
  10218c:	48 8b 05 8d 4f 00 00 	mov    0x4f8d(%rip),%rax        # 107120 <pml4>
  102193:	48 8b 55 c0          	mov    -0x40(%rbp),%rdx
  102197:	48 c1 e2 03          	shl    $0x3,%rdx
  10219b:	48 01 d0             	add    %rdx,%rax
  10219e:	48 8b 00             	mov    (%rax),%rax
  1021a1:	48 25 00 f0 ff ff    	and    $0xfffffffffffff000,%rax
  1021a7:	48 89 45 e8          	mov    %rax,-0x18(%rbp)
  1021ab:	48 8b 45 b8          	mov    -0x48(%rbp),%rax
  1021af:	48 c1 e0 03          	shl    $0x3,%rax
  1021b3:	48 03 45 e8          	add    -0x18(%rbp),%rax
  1021b7:	48 8b 00             	mov    (%rax),%rax
  1021ba:	83 e0 01             	and    $0x1,%eax
  1021bd:	48 85 c0             	test   %rax,%rax
  1021c0:	75 2d                	jne    1021ef <map_page+0x118>
  1021c2:	e8 85 fb ff ff       	callq  101d4c <allocate_page_table>
  1021c7:	48 89 45 e0          	mov    %rax,-0x20(%rbp)
  1021cb:	48 83 7d e0 00       	cmpq   $0x0,-0x20(%rbp)
  1021d0:	0f 84 e0 00 00 00    	je     1022b6 <map_page+0x1df>
  1021d6:	48 8b 45 b8          	mov    -0x48(%rbp),%rax
  1021da:	48 c1 e0 03          	shl    $0x3,%rax
  1021de:	48 03 45 e8          	add    -0x18(%rbp),%rax
  1021e2:	48 8b 55 e0          	mov    -0x20(%rbp),%rdx
  1021e6:	48 83 ca 07          	or     $0x7,%rdx
  1021ea:	48 89 10             	mov    %rdx,(%rax)
  1021ed:	eb 19                	jmp    102208 <map_page+0x131>
  1021ef:	48 8b 45 b8          	mov    -0x48(%rbp),%rax
  1021f3:	48 c1 e0 03          	shl    $0x3,%rax
  1021f7:	48 03 45 e8          	add    -0x18(%rbp),%rax
  1021fb:	48 8b 00             	mov    (%rax),%rax
  1021fe:	48 25 00 f0 ff ff    	and    $0xfffffffffffff000,%rax
  102204:	48 89 45 e0          	mov    %rax,-0x20(%rbp)
  102208:	48 8b 45 b0          	mov    -0x50(%rbp),%rax
  10220c:	48 c1 e0 03          	shl    $0x3,%rax
  102210:	48 03 45 e0          	add    -0x20(%rbp),%rax
  102214:	48 8b 00             	mov    (%rax),%rax
  102217:	83 e0 01             	and    $0x1,%eax
  10221a:	48 85 c0             	test   %rax,%rax
  10221d:	75 2d                	jne    10224c <map_page+0x175>
  10221f:	e8 28 fb ff ff       	callq  101d4c <allocate_page_table>
  102224:	48 89 45 d8          	mov    %rax,-0x28(%rbp)
  102228:	48 83 7d d8 00       	cmpq   $0x0,-0x28(%rbp)
  10222d:	0f 84 86 00 00 00    	je     1022b9 <map_page+0x1e2>
  102233:	48 8b 45 b0          	mov    -0x50(%rbp),%rax
  102237:	48 c1 e0 03          	shl    $0x3,%rax
  10223b:	48 03 45 e0          	add    -0x20(%rbp),%rax
  10223f:	48 8b 55 d8          	mov    -0x28(%rbp),%rdx
  102243:	48 83 ca 07          	or     $0x7,%rdx
  102247:	48 89 10             	mov    %rdx,(%rax)
  10224a:	eb 19                	jmp    102265 <map_page+0x18e>
  10224c:	48 8b 45 b0          	mov    -0x50(%rbp),%rax
  102250:	48 c1 e0 03          	shl    $0x3,%rax
  102254:	48 03 45 e0          	add    -0x20(%rbp),%rax
  102258:	48 8b 00             	mov    (%rax),%rax
  10225b:	48 25 00 f0 ff ff    	and    $0xfffffffffffff000,%rax
  102261:	48 89 45 d8          	mov    %rax,-0x28(%rbp)
  102265:	48 8b 45 a8          	mov    -0x58(%rbp),%rax
  102269:	48 c1 e0 03          	shl    $0x3,%rax
  10226d:	48 03 45 d8          	add    -0x28(%rbp),%rax
  102271:	48 8b 55 c8          	mov    -0x38(%rbp),%rdx
  102275:	48 89 d1             	mov    %rdx,%rcx
  102278:	48 81 e1 00 f0 ff ff 	and    $0xfffffffffffff000,%rcx
  10227f:	48 8b 55 88          	mov    -0x78(%rbp),%rdx
  102283:	83 e2 06             	and    $0x6,%edx
  102286:	48 09 ca             	or     %rcx,%rdx
  102289:	48 83 ca 01          	or     $0x1,%rdx
  10228d:	48 89 10             	mov    %rdx,(%rax)
  102290:	0f 20 c3             	mov    %cr0,%rbx
  102293:	48 89 5d a0          	mov    %rbx,-0x60(%rbp)
  102297:	48 8b 45 a0          	mov    -0x60(%rbp),%rax
  10229b:	25 00 00 00 80       	and    $0x80000000,%eax
  1022a0:	48 85 c0             	test   %rax,%rax
  1022a3:	74 15                	je     1022ba <map_page+0x1e3>
  1022a5:	48 8b 45 d0          	mov    -0x30(%rbp),%rax
  1022a9:	48 89 c7             	mov    %rax,%rdi
  1022ac:	e8 85 fa ff ff       	callq  101d36 <invlpg>
  1022b1:	eb 07                	jmp    1022ba <map_page+0x1e3>
  1022b3:	90                   	nop
  1022b4:	eb 04                	jmp    1022ba <map_page+0x1e3>
  1022b6:	90                   	nop
  1022b7:	eb 01                	jmp    1022ba <map_page+0x1e3>
  1022b9:	90                   	nop
  1022ba:	48 83 c4 78          	add    $0x78,%rsp
  1022be:	5b                   	pop    %rbx
  1022bf:	5d                   	pop    %rbp
  1022c0:	c3                   	retq   

00000000001022c1 <unmap_page>:
  1022c1:	55                   	push   %rbp
  1022c2:	48 89 e5             	mov    %rsp,%rbp
  1022c5:	53                   	push   %rbx
  1022c6:	48 83 ec 68          	sub    $0x68,%rsp
  1022ca:	48 89 7d 98          	mov    %rdi,-0x68(%rbp)
  1022ce:	48 8b 45 98          	mov    -0x68(%rbp),%rax
  1022d2:	48 89 45 e8          	mov    %rax,-0x18(%rbp)
  1022d6:	48 8b 45 e8          	mov    -0x18(%rbp),%rax
  1022da:	48 89 c7             	mov    %rax,%rdi
  1022dd:	e8 13 fb ff ff       	callq  101df5 <get_pml4_index>
  1022e2:	48 89 45 e0          	mov    %rax,-0x20(%rbp)
  1022e6:	48 8b 45 e8          	mov    -0x18(%rbp),%rax
  1022ea:	48 89 c7             	mov    %rax,%rdi
  1022ed:	e8 1a fb ff ff       	callq  101e0c <get_pdpt_index>
  1022f2:	48 89 45 d8          	mov    %rax,-0x28(%rbp)
  1022f6:	48 8b 45 e8          	mov    -0x18(%rbp),%rax
  1022fa:	48 89 c7             	mov    %rax,%rdi
  1022fd:	e8 21 fb ff ff       	callq  101e23 <get_pd_index>
  102302:	48 89 45 d0          	mov    %rax,-0x30(%rbp)
  102306:	48 8b 45 e8          	mov    -0x18(%rbp),%rax
  10230a:	48 89 c7             	mov    %rax,%rdi
  10230d:	e8 28 fb ff ff       	callq  101e3a <get_pt_index>
  102312:	48 89 45 c8          	mov    %rax,-0x38(%rbp)
  102316:	48 8b 05 03 4e 00 00 	mov    0x4e03(%rip),%rax        # 107120 <pml4>
  10231d:	48 8b 55 e0          	mov    -0x20(%rbp),%rdx
  102321:	48 c1 e2 03          	shl    $0x3,%rdx
  102325:	48 01 d0             	add    %rdx,%rax
  102328:	48 8b 00             	mov    (%rax),%rax
  10232b:	83 e0 01             	and    $0x1,%eax
  10232e:	48 85 c0             	test   %rax,%rax
  102331:	75 0a                	jne    10233d <unmap_page+0x7c>
  102333:	b8 00 00 00 00       	mov    $0x0,%eax
  102338:	e9 0f 01 00 00       	jmpq   10244c <unmap_page+0x18b>
  10233d:	48 8b 05 dc 4d 00 00 	mov    0x4ddc(%rip),%rax        # 107120 <pml4>
  102344:	48 8b 55 e0          	mov    -0x20(%rbp),%rdx
  102348:	48 c1 e2 03          	shl    $0x3,%rdx
  10234c:	48 01 d0             	add    %rdx,%rax
  10234f:	48 8b 00             	mov    (%rax),%rax
  102352:	48 25 00 f0 ff ff    	and    $0xfffffffffffff000,%rax
  102358:	48 89 45 c0          	mov    %rax,-0x40(%rbp)
  10235c:	48 8b 45 d8          	mov    -0x28(%rbp),%rax
  102360:	48 c1 e0 03          	shl    $0x3,%rax
  102364:	48 03 45 c0          	add    -0x40(%rbp),%rax
  102368:	48 8b 00             	mov    (%rax),%rax
  10236b:	83 e0 01             	and    $0x1,%eax
  10236e:	48 85 c0             	test   %rax,%rax
  102371:	75 0a                	jne    10237d <unmap_page+0xbc>
  102373:	b8 00 00 00 00       	mov    $0x0,%eax
  102378:	e9 cf 00 00 00       	jmpq   10244c <unmap_page+0x18b>
  10237d:	48 8b 45 d8          	mov    -0x28(%rbp),%rax
  102381:	48 c1 e0 03          	shl    $0x3,%rax
  102385:	48 03 45 c0          	add    -0x40(%rbp),%rax
  102389:	48 8b 00             	mov    (%rax),%rax
  10238c:	48 25 00 f0 ff ff    	and    $0xfffffffffffff000,%rax
  102392:	48 89 45 b8          	mov    %rax,-0x48(%rbp)
  102396:	48 8b 45 d0          	mov    -0x30(%rbp),%rax
  10239a:	48 c1 e0 03          	shl    $0x3,%rax
  10239e:	48 03 45 b8          	add    -0x48(%rbp),%rax
  1023a2:	48 8b 00             	mov    (%rax),%rax
  1023a5:	83 e0 01             	and    $0x1,%eax
  1023a8:	48 85 c0             	test   %rax,%rax
  1023ab:	75 0a                	jne    1023b7 <unmap_page+0xf6>
  1023ad:	b8 00 00 00 00       	mov    $0x0,%eax
  1023b2:	e9 95 00 00 00       	jmpq   10244c <unmap_page+0x18b>
  1023b7:	48 8b 45 d0          	mov    -0x30(%rbp),%rax
  1023bb:	48 c1 e0 03          	shl    $0x3,%rax
  1023bf:	48 03 45 b8          	add    -0x48(%rbp),%rax
  1023c3:	48 8b 00             	mov    (%rax),%rax
  1023c6:	48 25 00 f0 ff ff    	and    $0xfffffffffffff000,%rax
  1023cc:	48 89 45 b0          	mov    %rax,-0x50(%rbp)
  1023d0:	48 8b 45 c8          	mov    -0x38(%rbp),%rax
  1023d4:	48 c1 e0 03          	shl    $0x3,%rax
  1023d8:	48 03 45 b0          	add    -0x50(%rbp),%rax
  1023dc:	48 8b 00             	mov    (%rax),%rax
  1023df:	83 e0 01             	and    $0x1,%eax
  1023e2:	48 85 c0             	test   %rax,%rax
  1023e5:	75 07                	jne    1023ee <unmap_page+0x12d>
  1023e7:	b8 00 00 00 00       	mov    $0x0,%eax
  1023ec:	eb 5e                	jmp    10244c <unmap_page+0x18b>
  1023ee:	48 8b 45 c8          	mov    -0x38(%rbp),%rax
  1023f2:	48 c1 e0 03          	shl    $0x3,%rax
  1023f6:	48 03 45 b0          	add    -0x50(%rbp),%rax
  1023fa:	48 8b 00             	mov    (%rax),%rax
  1023fd:	48 25 00 f0 ff ff    	and    $0xfffffffffffff000,%rax
  102403:	48 89 45 a8          	mov    %rax,-0x58(%rbp)
  102407:	48 8b 45 c8          	mov    -0x38(%rbp),%rax
  10240b:	48 c1 e0 03          	shl    $0x3,%rax
  10240f:	48 03 45 b0          	add    -0x50(%rbp),%rax
  102413:	48 c7 00 00 00 00 00 	movq   $0x0,(%rax)
  10241a:	0f 20 c3             	mov    %cr0,%rbx
  10241d:	48 89 5d a0          	mov    %rbx,-0x60(%rbp)
  102421:	48 8b 45 a0          	mov    -0x60(%rbp),%rax
  102425:	25 00 00 00 80       	and    $0x80000000,%eax
  10242a:	48 85 c0             	test   %rax,%rax
  10242d:	74 0c                	je     10243b <unmap_page+0x17a>
  10242f:	48 8b 45 e8          	mov    -0x18(%rbp),%rax
  102433:	48 89 c7             	mov    %rax,%rdi
  102436:	e8 fb f8 ff ff       	callq  101d36 <invlpg>
  10243b:	48 8b 45 a8          	mov    -0x58(%rbp),%rax
  10243f:	48 89 c7             	mov    %rax,%rdi
  102442:	e8 65 08 00 00       	callq  102cac <free_frame>
  102447:	b8 01 00 00 00       	mov    $0x1,%eax
  10244c:	48 83 c4 68          	add    $0x68,%rsp
  102450:	5b                   	pop    %rbx
  102451:	5d                   	pop    %rbp
  102452:	c3                   	retq   

0000000000102453 <set_page_writable>:
  102453:	55                   	push   %rbp
  102454:	48 89 e5             	mov    %rsp,%rbp
  102457:	53                   	push   %rbx
  102458:	48 83 ec 60          	sub    $0x60,%rsp
  10245c:	48 89 7d a0          	mov    %rdi,-0x60(%rbp)
  102460:	89 f0                	mov    %esi,%eax
  102462:	88 45 9c             	mov    %al,-0x64(%rbp)
  102465:	48 8b 45 a0          	mov    -0x60(%rbp),%rax
  102469:	48 89 45 e8          	mov    %rax,-0x18(%rbp)
  10246d:	48 8b 45 e8          	mov    -0x18(%rbp),%rax
  102471:	48 89 c7             	mov    %rax,%rdi
  102474:	e8 7c f9 ff ff       	callq  101df5 <get_pml4_index>
  102479:	48 89 45 e0          	mov    %rax,-0x20(%rbp)
  10247d:	48 8b 45 e8          	mov    -0x18(%rbp),%rax
  102481:	48 89 c7             	mov    %rax,%rdi
  102484:	e8 83 f9 ff ff       	callq  101e0c <get_pdpt_index>
  102489:	48 89 45 d8          	mov    %rax,-0x28(%rbp)
  10248d:	48 8b 45 e8          	mov    -0x18(%rbp),%rax
  102491:	48 89 c7             	mov    %rax,%rdi
  102494:	e8 8a f9 ff ff       	callq  101e23 <get_pd_index>
  102499:	48 89 45 d0          	mov    %rax,-0x30(%rbp)
  10249d:	48 8b 45 e8          	mov    -0x18(%rbp),%rax
  1024a1:	48 89 c7             	mov    %rax,%rdi
  1024a4:	e8 91 f9 ff ff       	callq  101e3a <get_pt_index>
  1024a9:	48 89 45 c8          	mov    %rax,-0x38(%rbp)
  1024ad:	48 8b 05 6c 4c 00 00 	mov    0x4c6c(%rip),%rax        # 107120 <pml4>
  1024b4:	48 8b 55 e0          	mov    -0x20(%rbp),%rdx
  1024b8:	48 c1 e2 03          	shl    $0x3,%rdx
  1024bc:	48 01 d0             	add    %rdx,%rax
  1024bf:	48 8b 00             	mov    (%rax),%rax
  1024c2:	83 e0 01             	and    $0x1,%eax
  1024c5:	48 85 c0             	test   %rax,%rax
  1024c8:	0f 84 de 00 00 00    	je     1025ac <set_page_writable+0x159>
  1024ce:	48 8b 05 4b 4c 00 00 	mov    0x4c4b(%rip),%rax        # 107120 <pml4>
  1024d5:	48 8b 55 e0          	mov    -0x20(%rbp),%rdx
  1024d9:	48 c1 e2 03          	shl    $0x3,%rdx
  1024dd:	48 01 d0             	add    %rdx,%rax
  1024e0:	48 8b 00             	mov    (%rax),%rax
  1024e3:	48 25 00 f0 ff ff    	and    $0xfffffffffffff000,%rax
  1024e9:	48 89 45 c0          	mov    %rax,-0x40(%rbp)
  1024ed:	48 8b 45 d8          	mov    -0x28(%rbp),%rax
  1024f1:	48 c1 e0 03          	shl    $0x3,%rax
  1024f5:	48 03 45 c0          	add    -0x40(%rbp),%rax
  1024f9:	48 8b 00             	mov    (%rax),%rax
  1024fc:	83 e0 01             	and    $0x1,%eax
  1024ff:	48 85 c0             	test   %rax,%rax
  102502:	0f 84 a7 00 00 00    	je     1025af <set_page_writable+0x15c>
  102508:	48 8b 45 d8          	mov    -0x28(%rbp),%rax
  10250c:	48 c1 e0 03          	shl    $0x3,%rax
  102510:	48 03 45 c0          	add    -0x40(%rbp),%rax
  102514:	48 8b 00             	mov    (%rax),%rax
  102517:	48 25 00 f0 ff ff    	and    $0xfffffffffffff000,%rax
  10251d:	48 89 45 b8          	mov    %rax,-0x48(%rbp)
  102521:	48 8b 45 d0          	mov    -0x30(%rbp),%rax
  102525:	48 c1 e0 03          	shl    $0x3,%rax
  102529:	48 03 45 b8          	add    -0x48(%rbp),%rax
  10252d:	48 8b 00             	mov    (%rax),%rax
  102530:	83 e0 01             	and    $0x1,%eax
  102533:	48 85 c0             	test   %rax,%rax
  102536:	74 7a                	je     1025b2 <set_page_writable+0x15f>
  102538:	48 8b 45 d0          	mov    -0x30(%rbp),%rax
  10253c:	48 c1 e0 03          	shl    $0x3,%rax
  102540:	48 03 45 b8          	add    -0x48(%rbp),%rax
  102544:	48 8b 00             	mov    (%rax),%rax
  102547:	48 25 00 f0 ff ff    	and    $0xfffffffffffff000,%rax
  10254d:	48 89 45 b0          	mov    %rax,-0x50(%rbp)
  102551:	48 8b 45 c8          	mov    -0x38(%rbp),%rax
  102555:	48 c1 e0 03          	shl    $0x3,%rax
  102559:	48 03 45 b0          	add    -0x50(%rbp),%rax
  10255d:	48 8b 00             	mov    (%rax),%rax
  102560:	48 89 45 f0          	mov    %rax,-0x10(%rbp)
  102564:	80 7d 9c 00          	cmpb   $0x0,-0x64(%rbp)
  102568:	74 07                	je     102571 <set_page_writable+0x11e>
  10256a:	48 83 4d f0 02       	orq    $0x2,-0x10(%rbp)
  10256f:	eb 05                	jmp    102576 <set_page_writable+0x123>
  102571:	48 83 65 f0 fd       	andq   $0xfffffffffffffffd,-0x10(%rbp)
  102576:	48 8b 45 c8          	mov    -0x38(%rbp),%rax
  10257a:	48 c1 e0 03          	shl    $0x3,%rax
  10257e:	48 03 45 b0          	add    -0x50(%rbp),%rax
  102582:	48 8b 55 f0          	mov    -0x10(%rbp),%rdx
  102586:	48 89 10             	mov    %rdx,(%rax)
  102589:	0f 20 c3             	mov    %cr0,%rbx
  10258c:	48 89 5d a8          	mov    %rbx,-0x58(%rbp)
  102590:	48 8b 45 a8          	mov    -0x58(%rbp),%rax
  102594:	25 00 00 00 80       	and    $0x80000000,%eax
  102599:	48 85 c0             	test   %rax,%rax
  10259c:	74 15                	je     1025b3 <set_page_writable+0x160>
  10259e:	48 8b 45 e8          	mov    -0x18(%rbp),%rax
  1025a2:	48 89 c7             	mov    %rax,%rdi
  1025a5:	e8 8c f7 ff ff       	callq  101d36 <invlpg>
  1025aa:	eb 07                	jmp    1025b3 <set_page_writable+0x160>
  1025ac:	90                   	nop
  1025ad:	eb 04                	jmp    1025b3 <set_page_writable+0x160>
  1025af:	90                   	nop
  1025b0:	eb 01                	jmp    1025b3 <set_page_writable+0x160>
  1025b2:	90                   	nop
  1025b3:	48 83 c4 60          	add    $0x60,%rsp
  1025b7:	5b                   	pop    %rbx
  1025b8:	5d                   	pop    %rbp
  1025b9:	c3                   	retq   

00000000001025ba <set_page_user_access>:
  1025ba:	55                   	push   %rbp
  1025bb:	48 89 e5             	mov    %rsp,%rbp
  1025be:	53                   	push   %rbx
  1025bf:	48 83 ec 60          	sub    $0x60,%rsp
  1025c3:	48 89 7d a0          	mov    %rdi,-0x60(%rbp)
  1025c7:	89 f0                	mov    %esi,%eax
  1025c9:	88 45 9c             	mov    %al,-0x64(%rbp)
  1025cc:	48 8b 45 a0          	mov    -0x60(%rbp),%rax
  1025d0:	48 89 45 e8          	mov    %rax,-0x18(%rbp)
  1025d4:	48 8b 45 e8          	mov    -0x18(%rbp),%rax
  1025d8:	48 89 c7             	mov    %rax,%rdi
  1025db:	e8 15 f8 ff ff       	callq  101df5 <get_pml4_index>
  1025e0:	48 89 45 e0          	mov    %rax,-0x20(%rbp)
  1025e4:	48 8b 45 e8          	mov    -0x18(%rbp),%rax
  1025e8:	48 89 c7             	mov    %rax,%rdi
  1025eb:	e8 1c f8 ff ff       	callq  101e0c <get_pdpt_index>
  1025f0:	48 89 45 d8          	mov    %rax,-0x28(%rbp)
  1025f4:	48 8b 45 e8          	mov    -0x18(%rbp),%rax
  1025f8:	48 89 c7             	mov    %rax,%rdi
  1025fb:	e8 23 f8 ff ff       	callq  101e23 <get_pd_index>
  102600:	48 89 45 d0          	mov    %rax,-0x30(%rbp)
  102604:	48 8b 45 e8          	mov    -0x18(%rbp),%rax
  102608:	48 89 c7             	mov    %rax,%rdi
  10260b:	e8 2a f8 ff ff       	callq  101e3a <get_pt_index>
  102610:	48 89 45 c8          	mov    %rax,-0x38(%rbp)
  102614:	48 8b 05 05 4b 00 00 	mov    0x4b05(%rip),%rax        # 107120 <pml4>
  10261b:	48 8b 55 e0          	mov    -0x20(%rbp),%rdx
  10261f:	48 c1 e2 03          	shl    $0x3,%rdx
  102623:	48 01 d0             	add    %rdx,%rax
  102626:	48 8b 00             	mov    (%rax),%rax
  102629:	83 e0 01             	and    $0x1,%eax
  10262c:	48 85 c0             	test   %rax,%rax
  10262f:	0f 84 f9 00 00 00    	je     10272e <set_page_user_access+0x174>
  102635:	48 8b 05 e4 4a 00 00 	mov    0x4ae4(%rip),%rax        # 107120 <pml4>
  10263c:	48 8b 55 e0          	mov    -0x20(%rbp),%rdx
  102640:	48 c1 e2 03          	shl    $0x3,%rdx
  102644:	48 01 d0             	add    %rdx,%rax
  102647:	48 8b 00             	mov    (%rax),%rax
  10264a:	48 25 00 f0 ff ff    	and    $0xfffffffffffff000,%rax
  102650:	48 89 45 c0          	mov    %rax,-0x40(%rbp)
  102654:	48 8b 45 d8          	mov    -0x28(%rbp),%rax
  102658:	48 c1 e0 03          	shl    $0x3,%rax
  10265c:	48 03 45 c0          	add    -0x40(%rbp),%rax
  102660:	48 8b 00             	mov    (%rax),%rax
  102663:	83 e0 01             	and    $0x1,%eax
  102666:	48 85 c0             	test   %rax,%rax
  102669:	0f 84 c2 00 00 00    	je     102731 <set_page_user_access+0x177>
  10266f:	48 8b 45 d8          	mov    -0x28(%rbp),%rax
  102673:	48 c1 e0 03          	shl    $0x3,%rax
  102677:	48 03 45 c0          	add    -0x40(%rbp),%rax
  10267b:	48 8b 00             	mov    (%rax),%rax
  10267e:	48 25 00 f0 ff ff    	and    $0xfffffffffffff000,%rax
  102684:	48 89 45 b8          	mov    %rax,-0x48(%rbp)
  102688:	48 8b 45 d0          	mov    -0x30(%rbp),%rax
  10268c:	48 c1 e0 03          	shl    $0x3,%rax
  102690:	48 03 45 b8          	add    -0x48(%rbp),%rax
  102694:	48 8b 00             	mov    (%rax),%rax
  102697:	83 e0 01             	and    $0x1,%eax
  10269a:	48 85 c0             	test   %rax,%rax
  10269d:	0f 84 91 00 00 00    	je     102734 <set_page_user_access+0x17a>
  1026a3:	48 8b 45 d0          	mov    -0x30(%rbp),%rax
  1026a7:	48 c1 e0 03          	shl    $0x3,%rax
  1026ab:	48 03 45 b8          	add    -0x48(%rbp),%rax
  1026af:	48 8b 00             	mov    (%rax),%rax
  1026b2:	48 25 00 f0 ff ff    	and    $0xfffffffffffff000,%rax
  1026b8:	48 89 45 b0          	mov    %rax,-0x50(%rbp)
  1026bc:	48 8b 45 c8          	mov    -0x38(%rbp),%rax
  1026c0:	48 c1 e0 03          	shl    $0x3,%rax
  1026c4:	48 03 45 b0          	add    -0x50(%rbp),%rax
  1026c8:	48 8b 00             	mov    (%rax),%rax
  1026cb:	83 e0 01             	and    $0x1,%eax
  1026ce:	48 85 c0             	test   %rax,%rax
  1026d1:	74 64                	je     102737 <set_page_user_access+0x17d>
  1026d3:	48 8b 45 c8          	mov    -0x38(%rbp),%rax
  1026d7:	48 c1 e0 03          	shl    $0x3,%rax
  1026db:	48 03 45 b0          	add    -0x50(%rbp),%rax
  1026df:	48 8b 00             	mov    (%rax),%rax
  1026e2:	48 89 45 f0          	mov    %rax,-0x10(%rbp)
  1026e6:	80 7d 9c 00          	cmpb   $0x0,-0x64(%rbp)
  1026ea:	74 07                	je     1026f3 <set_page_user_access+0x139>
  1026ec:	48 83 4d f0 04       	orq    $0x4,-0x10(%rbp)
  1026f1:	eb 05                	jmp    1026f8 <set_page_user_access+0x13e>
  1026f3:	48 83 65 f0 fb       	andq   $0xfffffffffffffffb,-0x10(%rbp)
  1026f8:	48 8b 45 c8          	mov    -0x38(%rbp),%rax
  1026fc:	48 c1 e0 03          	shl    $0x3,%rax
  102700:	48 03 45 b0          	add    -0x50(%rbp),%rax
  102704:	48 8b 55 f0          	mov    -0x10(%rbp),%rdx
  102708:	48 89 10             	mov    %rdx,(%rax)
  10270b:	0f 20 c3             	mov    %cr0,%rbx
  10270e:	48 89 5d a8          	mov    %rbx,-0x58(%rbp)
  102712:	48 8b 45 a8          	mov    -0x58(%rbp),%rax
  102716:	25 00 00 00 80       	and    $0x80000000,%eax
  10271b:	48 85 c0             	test   %rax,%rax
  10271e:	74 18                	je     102738 <set_page_user_access+0x17e>
  102720:	48 8b 45 e8          	mov    -0x18(%rbp),%rax
  102724:	48 89 c7             	mov    %rax,%rdi
  102727:	e8 0a f6 ff ff       	callq  101d36 <invlpg>
  10272c:	eb 0a                	jmp    102738 <set_page_user_access+0x17e>
  10272e:	90                   	nop
  10272f:	eb 07                	jmp    102738 <set_page_user_access+0x17e>
  102731:	90                   	nop
  102732:	eb 04                	jmp    102738 <set_page_user_access+0x17e>
  102734:	90                   	nop
  102735:	eb 01                	jmp    102738 <set_page_user_access+0x17e>
  102737:	90                   	nop
  102738:	48 83 c4 60          	add    $0x60,%rsp
  10273c:	5b                   	pop    %rbx
  10273d:	5d                   	pop    %rbp
  10273e:	c3                   	retq   
	...

0000000000102740 <__cli>:
  102740:	55                   	push   %rbp
  102741:	48 89 e5             	mov    %rsp,%rbp
  102744:	fa                   	cli    
  102745:	5d                   	pop    %rbp
  102746:	c3                   	retq   

0000000000102747 <__hlt>:
  102747:	55                   	push   %rbp
  102748:	48 89 e5             	mov    %rsp,%rbp
  10274b:	f4                   	hlt    
  10274c:	5d                   	pop    %rbp
  10274d:	c3                   	retq   

000000000010274e <bugcheck_system>:
  10274e:	55                   	push   %rbp
  10274f:	48 89 e5             	mov    %rsp,%rbp
  102752:	41 57                	push   %r15
  102754:	41 56                	push   %r14
  102756:	41 55                	push   %r13
  102758:	41 54                	push   %r12
  10275a:	53                   	push   %rbx
  10275b:	48 81 ec e8 00 00 00 	sub    $0xe8,%rsp
  102762:	48 89 7d c8          	mov    %rdi,-0x38(%rbp)
  102766:	89 75 c4             	mov    %esi,-0x3c(%rbp)
  102769:	89 55 c0             	mov    %edx,-0x40(%rbp)
  10276c:	89 c8                	mov    %ecx,%eax
  10276e:	88 45 bc             	mov    %al,-0x44(%rbp)
  102771:	e8 ca ff ff ff       	callq  102740 <__cli>
  102776:	48 8b 05 db 5a 00 00 	mov    0x5adb(%rip),%rax        # 108258 <gop>
  10277d:	be ff 00 00 ff       	mov    $0xff0000ff,%esi
  102782:	48 89 c7             	mov    %rax,%rdi
  102785:	e8 6d 19 00 00       	callq  1040f7 <gop_clear_screen>
  10278a:	48 8b 05 c7 5a 00 00 	mov    0x5ac7(%rip),%rax        # 108258 <gop>
  102791:	ba 38 5f 10 00       	mov    $0x105f38,%edx
  102796:	be ff ff ff ff       	mov    $0xffffffff,%esi
  10279b:	48 89 c7             	mov    %rax,%rdi
  10279e:	b8 00 00 00 00       	mov    $0x0,%eax
  1027a3:	e8 cc 14 00 00       	callq  103c74 <gop_printf>
  1027a8:	48 8b 05 a9 5a 00 00 	mov    0x5aa9(%rip),%rax        # 108258 <gop>
  1027af:	ba 78 5f 10 00       	mov    $0x105f78,%edx
  1027b4:	be ff ff ff ff       	mov    $0xffffffff,%esi
  1027b9:	48 89 c7             	mov    %rax,%rdi
  1027bc:	b8 00 00 00 00       	mov    $0x0,%eax
  1027c1:	e8 ae 14 00 00       	callq  103c74 <gop_printf>
  1027c6:	48 8b 05 8b 5a 00 00 	mov    0x5a8b(%rip),%rax        # 108258 <gop>
  1027cd:	ba a3 5f 10 00       	mov    $0x105fa3,%edx
  1027d2:	be ff ff ff ff       	mov    $0xffffffff,%esi
  1027d7:	48 89 c7             	mov    %rax,%rdi
  1027da:	b8 00 00 00 00       	mov    $0x0,%eax
  1027df:	e8 90 14 00 00       	callq  103c74 <gop_printf>
  1027e4:	48 8b 05 6d 5a 00 00 	mov    0x5a6d(%rip),%rax        # 108258 <gop>
  1027eb:	8b 55 c4             	mov    -0x3c(%rbp),%edx
  1027ee:	89 d1                	mov    %edx,%ecx
  1027f0:	ba af 5f 10 00       	mov    $0x105faf,%edx
  1027f5:	be 00 ff ff ff       	mov    $0xffffff00,%esi
  1027fa:	48 89 c7             	mov    %rax,%rdi
  1027fd:	b8 00 00 00 00       	mov    $0x0,%eax
  102802:	e8 6d 14 00 00       	callq  103c74 <gop_printf>
  102807:	48 83 7d c8 00       	cmpq   $0x0,-0x38(%rbp)
  10280c:	0f 84 63 01 00 00    	je     102975 <bugcheck_system+0x227>
  102812:	48 8b 45 c8          	mov    -0x38(%rbp),%rax
  102816:	48 8b b0 98 00 00 00 	mov    0x98(%rax),%rsi
  10281d:	48 8b 45 c8          	mov    -0x38(%rbp),%rax
  102821:	4c 8b 88 90 00 00 00 	mov    0x90(%rax),%r9
  102828:	48 8b 45 c8          	mov    -0x38(%rbp),%rax
  10282c:	4c 8b 90 88 00 00 00 	mov    0x88(%rax),%r10
  102833:	48 8b 45 c8          	mov    -0x38(%rbp),%rax
  102837:	48 8b 98 80 00 00 00 	mov    0x80(%rax),%rbx
  10283e:	48 8b 45 c8          	mov    -0x38(%rbp),%rax
  102842:	4c 8b 60 78          	mov    0x78(%rax),%r12
  102846:	48 8b 45 c8          	mov    -0x38(%rbp),%rax
  10284a:	4c 8b 70 70          	mov    0x70(%rax),%r14
  10284e:	48 8b 45 c8          	mov    -0x38(%rbp),%rax
  102852:	48 8b 40 68          	mov    0x68(%rax),%rax
  102856:	48 89 45 b0          	mov    %rax,-0x50(%rbp)
  10285a:	48 8b 45 c8          	mov    -0x38(%rbp),%rax
  10285e:	48 8b 40 60          	mov    0x60(%rax),%rax
  102862:	48 89 45 a8          	mov    %rax,-0x58(%rbp)
  102866:	48 8b 45 c8          	mov    -0x38(%rbp),%rax
  10286a:	48 8b 40 58          	mov    0x58(%rax),%rax
  10286e:	48 89 45 a0          	mov    %rax,-0x60(%rbp)
  102872:	48 8b 45 c8          	mov    -0x38(%rbp),%rax
  102876:	48 8b 40 50          	mov    0x50(%rax),%rax
  10287a:	48 89 45 98          	mov    %rax,-0x68(%rbp)
  10287e:	48 8b 45 c8          	mov    -0x38(%rbp),%rax
  102882:	48 8b 40 48          	mov    0x48(%rax),%rax
  102886:	48 89 45 90          	mov    %rax,-0x70(%rbp)
  10288a:	48 8b 45 c8          	mov    -0x38(%rbp),%rax
  10288e:	48 8b 40 40          	mov    0x40(%rax),%rax
  102892:	48 89 45 88          	mov    %rax,-0x78(%rbp)
  102896:	48 8b 45 c8          	mov    -0x38(%rbp),%rax
  10289a:	48 8b 40 38          	mov    0x38(%rax),%rax
  10289e:	48 89 45 80          	mov    %rax,-0x80(%rbp)
  1028a2:	48 8b 45 c8          	mov    -0x38(%rbp),%rax
  1028a6:	4c 8b 78 30          	mov    0x30(%rax),%r15
  1028aa:	48 8b 45 c8          	mov    -0x38(%rbp),%rax
  1028ae:	4c 8b 68 28          	mov    0x28(%rax),%r13
  1028b2:	48 8b 45 c8          	mov    -0x38(%rbp),%rax
  1028b6:	4c 8b 58 20          	mov    0x20(%rax),%r11
  1028ba:	48 8b 45 c8          	mov    -0x38(%rbp),%rax
  1028be:	4c 8b 40 18          	mov    0x18(%rax),%r8
  1028c2:	48 8b 45 c8          	mov    -0x38(%rbp),%rax
  1028c6:	48 8b 78 10          	mov    0x10(%rax),%rdi
  1028ca:	48 8b 45 c8          	mov    -0x38(%rbp),%rax
  1028ce:	48 8b 48 08          	mov    0x8(%rax),%rcx
  1028d2:	48 8b 45 c8          	mov    -0x38(%rbp),%rax
  1028d6:	48 8b 10             	mov    (%rax),%rdx
  1028d9:	48 8b 05 78 59 00 00 	mov    0x5978(%rip),%rax        # 108258 <gop>
  1028e0:	48 89 b4 24 80 00 00 	mov    %rsi,0x80(%rsp)
  1028e7:	00 
  1028e8:	4c 89 4c 24 78       	mov    %r9,0x78(%rsp)
  1028ed:	4c 89 54 24 70       	mov    %r10,0x70(%rsp)
  1028f2:	48 89 5c 24 68       	mov    %rbx,0x68(%rsp)
  1028f7:	4c 89 64 24 60       	mov    %r12,0x60(%rsp)
  1028fc:	4c 89 74 24 58       	mov    %r14,0x58(%rsp)
  102901:	48 8b 5d b0          	mov    -0x50(%rbp),%rbx
  102905:	48 89 5c 24 50       	mov    %rbx,0x50(%rsp)
  10290a:	48 8b 5d a8          	mov    -0x58(%rbp),%rbx
  10290e:	48 89 5c 24 48       	mov    %rbx,0x48(%rsp)
  102913:	48 8b 5d a0          	mov    -0x60(%rbp),%rbx
  102917:	48 89 5c 24 40       	mov    %rbx,0x40(%rsp)
  10291c:	48 8b 5d 98          	mov    -0x68(%rbp),%rbx
  102920:	48 89 5c 24 38       	mov    %rbx,0x38(%rsp)
  102925:	48 8b 5d 90          	mov    -0x70(%rbp),%rbx
  102929:	48 89 5c 24 30       	mov    %rbx,0x30(%rsp)
  10292e:	48 8b 5d 88          	mov    -0x78(%rbp),%rbx
  102932:	48 89 5c 24 28       	mov    %rbx,0x28(%rsp)
  102937:	48 8b 5d 80          	mov    -0x80(%rbp),%rbx
  10293b:	48 89 5c 24 20       	mov    %rbx,0x20(%rsp)
  102940:	4c 89 7c 24 18       	mov    %r15,0x18(%rsp)
  102945:	4c 89 6c 24 10       	mov    %r13,0x10(%rsp)
  10294a:	4c 89 5c 24 08       	mov    %r11,0x8(%rsp)
  10294f:	4c 89 04 24          	mov    %r8,(%rsp)
  102953:	49 89 f9             	mov    %rdi,%r9
  102956:	49 89 c8             	mov    %rcx,%r8
  102959:	48 89 d1             	mov    %rdx,%rcx
  10295c:	ba b8 5f 10 00       	mov    $0x105fb8,%edx
  102961:	be ff ff ff ff       	mov    $0xffffffff,%esi
  102966:	48 89 c7             	mov    %rax,%rdi
  102969:	b8 00 00 00 00       	mov    $0x0,%eax
  10296e:	e8 01 13 00 00       	callq  103c74 <gop_printf>
  102973:	eb 1e                	jmp    102993 <bugcheck_system+0x245>
  102975:	48 8b 05 dc 58 00 00 	mov    0x58dc(%rip),%rax        # 108258 <gop>
  10297c:	ba ee 60 10 00       	mov    $0x1060ee,%edx
  102981:	be 00 00 ff ff       	mov    $0xffff0000,%esi
  102986:	48 89 c7             	mov    %rax,%rdi
  102989:	b8 00 00 00 00       	mov    $0x0,%eax
  10298e:	e8 e1 12 00 00       	callq  103c74 <gop_printf>
  102993:	80 7d bc 00          	cmpb   $0x0,-0x44(%rbp)
  102997:	74 4e                	je     1029e7 <bugcheck_system+0x299>
  102999:	83 7d c4 0e          	cmpl   $0xe,-0x3c(%rbp)
  10299d:	75 25                	jne    1029c4 <bugcheck_system+0x276>
  10299f:	48 8b 05 b2 58 00 00 	mov    0x58b2(%rip),%rax        # 108258 <gop>
  1029a6:	8b 55 c0             	mov    -0x40(%rbp),%edx
  1029a9:	89 d1                	mov    %edx,%ecx
  1029ab:	ba 06 61 10 00       	mov    $0x106106,%edx
  1029b0:	be 00 a5 ff ff       	mov    $0xffffa500,%esi
  1029b5:	48 89 c7             	mov    %rax,%rdi
  1029b8:	b8 00 00 00 00       	mov    $0x0,%eax
  1029bd:	e8 b2 12 00 00       	callq  103c74 <gop_printf>
  1029c2:	eb 23                	jmp    1029e7 <bugcheck_system+0x299>
  1029c4:	48 8b 05 8d 58 00 00 	mov    0x588d(%rip),%rax        # 108258 <gop>
  1029cb:	8b 55 c0             	mov    -0x40(%rbp),%edx
  1029ce:	89 d1                	mov    %edx,%ecx
  1029d0:	ba 1c 61 10 00       	mov    $0x10611c,%edx
  1029d5:	be 80 00 80 ff       	mov    $0xff800080,%esi
  1029da:	48 89 c7             	mov    %rax,%rdi
  1029dd:	b8 00 00 00 00       	mov    $0x0,%eax
  1029e2:	e8 8d 12 00 00       	callq  103c74 <gop_printf>
  1029e7:	e8 5b fd ff ff       	callq  102747 <__hlt>
  1029ec:	48 81 c4 e8 00 00 00 	add    $0xe8,%rsp
  1029f3:	5b                   	pop    %rbx
  1029f4:	41 5c                	pop    %r12
  1029f6:	41 5d                	pop    %r13
  1029f8:	41 5e                	pop    %r14
  1029fa:	41 5f                	pop    %r15
  1029fc:	5d                   	pop    %rbp
  1029fd:	c3                   	retq   
	...

0000000000102a00 <set_frame>:
  102a00:	55                   	push   %rbp
  102a01:	48 89 e5             	mov    %rsp,%rbp
  102a04:	53                   	push   %rbx
  102a05:	48 83 ec 18          	sub    $0x18,%rsp
  102a09:	48 89 7d e8          	mov    %rdi,-0x18(%rbp)
  102a0d:	48 81 7d e8 ff 7f 00 	cmpq   $0x7fff,-0x18(%rbp)
  102a14:	00 
  102a15:	76 19                	jbe    102a30 <set_frame+0x30>
  102a17:	b9 01 00 00 00       	mov    $0x1,%ecx
  102a1c:	ba 0d f0 ad 0b       	mov    $0xbadf00d,%edx
  102a21:	be 12 00 00 00       	mov    $0x12,%esi
  102a26:	bf 00 00 00 00       	mov    $0x0,%edi
  102a2b:	e8 1e fd ff ff       	callq  10274e <bugcheck_system>
  102a30:	48 8b 45 e8          	mov    -0x18(%rbp),%rax
  102a34:	48 c1 e8 03          	shr    $0x3,%rax
  102a38:	0f b6 b0 80 71 10 00 	movzbl 0x107180(%rax),%esi
  102a3f:	48 8b 55 e8          	mov    -0x18(%rbp),%rdx
  102a43:	83 e2 07             	and    $0x7,%edx
  102a46:	bf 01 00 00 00       	mov    $0x1,%edi
  102a4b:	89 fb                	mov    %edi,%ebx
  102a4d:	89 d1                	mov    %edx,%ecx
  102a4f:	d3 e3                	shl    %cl,%ebx
  102a51:	89 da                	mov    %ebx,%edx
  102a53:	09 f2                	or     %esi,%edx
  102a55:	88 90 80 71 10 00    	mov    %dl,0x107180(%rax)
  102a5b:	48 83 c4 18          	add    $0x18,%rsp
  102a5f:	5b                   	pop    %rbx
  102a60:	5d                   	pop    %rbp
  102a61:	c3                   	retq   

0000000000102a62 <clear_frame>:
  102a62:	55                   	push   %rbp
  102a63:	48 89 e5             	mov    %rsp,%rbp
  102a66:	53                   	push   %rbx
  102a67:	48 89 7d f0          	mov    %rdi,-0x10(%rbp)
  102a6b:	48 81 7d f0 ff 7f 00 	cmpq   $0x7fff,-0x10(%rbp)
  102a72:	00 
  102a73:	77 2b                	ja     102aa0 <clear_frame+0x3e>
  102a75:	48 8b 45 f0          	mov    -0x10(%rbp),%rax
  102a79:	48 c1 e8 03          	shr    $0x3,%rax
  102a7d:	0f b6 90 80 71 10 00 	movzbl 0x107180(%rax),%edx
  102a84:	48 8b 4d f0          	mov    -0x10(%rbp),%rcx
  102a88:	83 e1 07             	and    $0x7,%ecx
  102a8b:	be 01 00 00 00       	mov    $0x1,%esi
  102a90:	89 f3                	mov    %esi,%ebx
  102a92:	d3 e3                	shl    %cl,%ebx
  102a94:	89 d9                	mov    %ebx,%ecx
  102a96:	f7 d1                	not    %ecx
  102a98:	21 ca                	and    %ecx,%edx
  102a9a:	88 90 80 71 10 00    	mov    %dl,0x107180(%rax)
  102aa0:	5b                   	pop    %rbx
  102aa1:	5d                   	pop    %rbp
  102aa2:	c3                   	retq   

0000000000102aa3 <frame_bitmap_init>:
  102aa3:	55                   	push   %rbp
  102aa4:	48 89 e5             	mov    %rsp,%rbp
  102aa7:	48 83 ec 70          	sub    $0x70,%rsp
  102aab:	ba 00 10 00 00       	mov    $0x1000,%edx
  102ab0:	be ff 00 00 00       	mov    $0xff,%esi
  102ab5:	bf 80 71 10 00       	mov    $0x107180,%edi
  102aba:	e8 8c ef ff ff       	callq  101a4b <kmemset>
  102abf:	0f b6 05 3a d5 ff ff 	movzbl -0x2ac6(%rip),%eax        # 100000 <_start>
  102ac6:	0f b6 c0             	movzbl %al,%eax
  102ac9:	48 89 45 e0          	mov    %rax,-0x20(%rbp)
  102acd:	0f b6 05 2c d5 04 00 	movzbl 0x4d52c(%rip),%eax        # 150000 <__stack_end>
  102ad4:	0f b6 c0             	movzbl %al,%eax
  102ad7:	48 89 45 d8          	mov    %rax,-0x28(%rbp)
  102adb:	48 8b 45 e0          	mov    -0x20(%rbp),%rax
  102adf:	48 c1 e8 0c          	shr    $0xc,%rax
  102ae3:	48 89 45 d0          	mov    %rax,-0x30(%rbp)
  102ae7:	48 8b 45 d8          	mov    -0x28(%rbp),%rax
  102aeb:	48 05 ff 0f 00 00    	add    $0xfff,%rax
  102af1:	48 c1 e8 0c          	shr    $0xc,%rax
  102af5:	48 89 45 c8          	mov    %rax,-0x38(%rbp)
  102af9:	48 8b 45 d0          	mov    -0x30(%rbp),%rax
  102afd:	48 89 45 f8          	mov    %rax,-0x8(%rbp)
  102b01:	eb 11                	jmp    102b14 <frame_bitmap_init+0x71>
  102b03:	48 8b 45 f8          	mov    -0x8(%rbp),%rax
  102b07:	48 89 c7             	mov    %rax,%rdi
  102b0a:	e8 f1 fe ff ff       	callq  102a00 <set_frame>
  102b0f:	48 83 45 f8 01       	addq   $0x1,-0x8(%rbp)
  102b14:	48 8b 45 f8          	mov    -0x8(%rbp),%rax
  102b18:	48 3b 45 c8          	cmp    -0x38(%rbp),%rax
  102b1c:	72 e5                	jb     102b03 <frame_bitmap_init+0x60>
  102b1e:	48 8b 05 23 46 00 00 	mov    0x4623(%rip),%rax        # 107148 <gEfiMemoryMapSize>
  102b25:	48 8b 15 24 46 00 00 	mov    0x4624(%rip),%rdx        # 107150 <gEfiDescriptorSize>
  102b2c:	48 89 55 98          	mov    %rdx,-0x68(%rbp)
  102b30:	ba 00 00 00 00       	mov    $0x0,%edx
  102b35:	48 f7 75 98          	divq   -0x68(%rbp)
  102b39:	48 89 45 c0          	mov    %rax,-0x40(%rbp)
  102b3d:	48 c7 45 f0 00 00 00 	movq   $0x0,-0x10(%rbp)
  102b44:	00 
  102b45:	e9 8e 00 00 00       	jmpq   102bd8 <frame_bitmap_init+0x135>
  102b4a:	48 8b 15 ef 45 00 00 	mov    0x45ef(%rip),%rdx        # 107140 <gEfiMemoryMap>
  102b51:	48 8b 05 f8 45 00 00 	mov    0x45f8(%rip),%rax        # 107150 <gEfiDescriptorSize>
  102b58:	48 0f af 45 f0       	imul   -0x10(%rbp),%rax
  102b5d:	48 01 d0             	add    %rdx,%rax
  102b60:	48 89 45 b8          	mov    %rax,-0x48(%rbp)
  102b64:	48 8b 45 b8          	mov    -0x48(%rbp),%rax
  102b68:	8b 00                	mov    (%rax),%eax
  102b6a:	83 f8 07             	cmp    $0x7,%eax
  102b6d:	75 64                	jne    102bd3 <frame_bitmap_init+0x130>
  102b6f:	48 8b 45 b8          	mov    -0x48(%rbp),%rax
  102b73:	48 8b 40 08          	mov    0x8(%rax),%rax
  102b77:	48 89 45 b0          	mov    %rax,-0x50(%rbp)
  102b7b:	48 8b 45 b8          	mov    -0x48(%rbp),%rax
  102b7f:	48 8b 40 18          	mov    0x18(%rax),%rax
  102b83:	48 89 45 a8          	mov    %rax,-0x58(%rbp)
  102b87:	48 c7 45 e8 00 00 00 	movq   $0x0,-0x18(%rbp)
  102b8e:	00 
  102b8f:	eb 38                	jmp    102bc9 <frame_bitmap_init+0x126>
  102b91:	48 8b 45 b0          	mov    -0x50(%rbp),%rax
  102b95:	48 c1 e8 0c          	shr    $0xc,%rax
  102b99:	48 03 45 e8          	add    -0x18(%rbp),%rax
  102b9d:	48 89 45 a0          	mov    %rax,-0x60(%rbp)
  102ba1:	48 8b 45 a0          	mov    -0x60(%rbp),%rax
  102ba5:	48 3b 45 d0          	cmp    -0x30(%rbp),%rax
  102ba9:	72 0a                	jb     102bb5 <frame_bitmap_init+0x112>
  102bab:	48 8b 45 a0          	mov    -0x60(%rbp),%rax
  102baf:	48 3b 45 c8          	cmp    -0x38(%rbp),%rax
  102bb3:	72 0e                	jb     102bc3 <frame_bitmap_init+0x120>
  102bb5:	48 8b 45 a0          	mov    -0x60(%rbp),%rax
  102bb9:	48 89 c7             	mov    %rax,%rdi
  102bbc:	e8 a1 fe ff ff       	callq  102a62 <clear_frame>
  102bc1:	eb 01                	jmp    102bc4 <frame_bitmap_init+0x121>
  102bc3:	90                   	nop
  102bc4:	48 83 45 e8 01       	addq   $0x1,-0x18(%rbp)
  102bc9:	48 8b 45 e8          	mov    -0x18(%rbp),%rax
  102bcd:	48 3b 45 a8          	cmp    -0x58(%rbp),%rax
  102bd1:	72 be                	jb     102b91 <frame_bitmap_init+0xee>
  102bd3:	48 83 45 f0 01       	addq   $0x1,-0x10(%rbp)
  102bd8:	48 8b 45 f0          	mov    -0x10(%rbp),%rax
  102bdc:	48 3b 45 c0          	cmp    -0x40(%rbp),%rax
  102be0:	0f 82 64 ff ff ff    	jb     102b4a <frame_bitmap_init+0xa7>
  102be6:	c9                   	leaveq 
  102be7:	c3                   	retq   

0000000000102be8 <alloc_frame>:
  102be8:	55                   	push   %rbp
  102be9:	48 89 e5             	mov    %rsp,%rbp
  102bec:	53                   	push   %rbx
  102bed:	48 8b 05 3c 45 00 00 	mov    0x453c(%rip),%rax        # 107130 <next_pt>
  102bf4:	48 8d 90 00 10 00 00 	lea    0x1000(%rax),%rdx
  102bfb:	48 8b 05 fe 93 04 00 	mov    0x493fe(%rip),%rax        # 14c000 <__pt_end>
  102c02:	48 39 c2             	cmp    %rax,%rdx
  102c05:	77 25                	ja     102c2c <alloc_frame+0x44>
  102c07:	48 8b 05 22 45 00 00 	mov    0x4522(%rip),%rax        # 107130 <next_pt>
  102c0e:	48 89 45 e8          	mov    %rax,-0x18(%rbp)
  102c12:	48 8b 05 17 45 00 00 	mov    0x4517(%rip),%rax        # 107130 <next_pt>
  102c19:	48 05 00 10 00 00    	add    $0x1000,%rax
  102c1f:	48 89 05 0a 45 00 00 	mov    %rax,0x450a(%rip)        # 107130 <next_pt>
  102c26:	48 8b 45 e8          	mov    -0x18(%rbp),%rax
  102c2a:	eb 7d                	jmp    102ca9 <alloc_frame+0xc1>
  102c2c:	48 c7 45 f0 00 00 00 	movq   $0x0,-0x10(%rbp)
  102c33:	00 
  102c34:	eb 64                	jmp    102c9a <alloc_frame+0xb2>
  102c36:	48 8b 45 f0          	mov    -0x10(%rbp),%rax
  102c3a:	48 c1 e8 03          	shr    $0x3,%rax
  102c3e:	0f b6 80 80 71 10 00 	movzbl 0x107180(%rax),%eax
  102c45:	0f b6 d0             	movzbl %al,%edx
  102c48:	48 8b 45 f0          	mov    -0x10(%rbp),%rax
  102c4c:	83 e0 07             	and    $0x7,%eax
  102c4f:	89 d3                	mov    %edx,%ebx
  102c51:	89 c1                	mov    %eax,%ecx
  102c53:	d3 fb                	sar    %cl,%ebx
  102c55:	89 d8                	mov    %ebx,%eax
  102c57:	83 e0 01             	and    $0x1,%eax
  102c5a:	85 c0                	test   %eax,%eax
  102c5c:	75 37                	jne    102c95 <alloc_frame+0xad>
  102c5e:	48 8b 45 f0          	mov    -0x10(%rbp),%rax
  102c62:	48 c1 e8 03          	shr    $0x3,%rax
  102c66:	0f b6 90 80 71 10 00 	movzbl 0x107180(%rax),%edx
  102c6d:	89 d6                	mov    %edx,%esi
  102c6f:	48 8b 55 f0          	mov    -0x10(%rbp),%rdx
  102c73:	83 e2 07             	and    $0x7,%edx
  102c76:	bf 01 00 00 00       	mov    $0x1,%edi
  102c7b:	89 fb                	mov    %edi,%ebx
  102c7d:	89 d1                	mov    %edx,%ecx
  102c7f:	d3 e3                	shl    %cl,%ebx
  102c81:	89 da                	mov    %ebx,%edx
  102c83:	09 f2                	or     %esi,%edx
  102c85:	88 90 80 71 10 00    	mov    %dl,0x107180(%rax)
  102c8b:	48 8b 45 f0          	mov    -0x10(%rbp),%rax
  102c8f:	48 c1 e0 0c          	shl    $0xc,%rax
  102c93:	eb 14                	jmp    102ca9 <alloc_frame+0xc1>
  102c95:	48 83 45 f0 01       	addq   $0x1,-0x10(%rbp)
  102c9a:	48 81 7d f0 ff 7f 00 	cmpq   $0x7fff,-0x10(%rbp)
  102ca1:	00 
  102ca2:	76 92                	jbe    102c36 <alloc_frame+0x4e>
  102ca4:	b8 00 00 00 00       	mov    $0x0,%eax
  102ca9:	5b                   	pop    %rbx
  102caa:	5d                   	pop    %rbp
  102cab:	c3                   	retq   

0000000000102cac <free_frame>:
  102cac:	55                   	push   %rbp
  102cad:	48 89 e5             	mov    %rsp,%rbp
  102cb0:	48 83 ec 18          	sub    $0x18,%rsp
  102cb4:	48 89 7d e8          	mov    %rdi,-0x18(%rbp)
  102cb8:	48 8b 45 e8          	mov    -0x18(%rbp),%rax
  102cbc:	48 c1 e8 0c          	shr    $0xc,%rax
  102cc0:	48 89 45 f8          	mov    %rax,-0x8(%rbp)
  102cc4:	48 8b 45 f8          	mov    -0x8(%rbp),%rax
  102cc8:	48 89 c7             	mov    %rax,%rdi
  102ccb:	e8 92 fd ff ff       	callq  102a62 <clear_frame>
  102cd0:	c9                   	leaveq 
  102cd1:	c3                   	retq   
	...

0000000000102cd4 <__inword>:
  102cd4:	55                   	push   %rbp
  102cd5:	48 89 e5             	mov    %rsp,%rbp
  102cd8:	53                   	push   %rbx
  102cd9:	89 f8                	mov    %edi,%eax
  102cdb:	66 89 45 e4          	mov    %ax,-0x1c(%rbp)
  102cdf:	0f b7 55 e4          	movzwl -0x1c(%rbp),%edx
  102ce3:	66 89 55 e2          	mov    %dx,-0x1e(%rbp)
  102ce7:	0f b7 55 e2          	movzwl -0x1e(%rbp),%edx
  102ceb:	66 ed                	in     (%dx),%ax
  102ced:	89 c3                	mov    %eax,%ebx
  102cef:	66 89 5d f6          	mov    %bx,-0xa(%rbp)
  102cf3:	0f b7 45 f6          	movzwl -0xa(%rbp),%eax
  102cf7:	5b                   	pop    %rbx
  102cf8:	5d                   	pop    %rbp
  102cf9:	c3                   	retq   

0000000000102cfa <__outword>:
  102cfa:	55                   	push   %rbp
  102cfb:	48 89 e5             	mov    %rsp,%rbp
  102cfe:	89 fa                	mov    %edi,%edx
  102d00:	89 f0                	mov    %esi,%eax
  102d02:	66 89 55 fc          	mov    %dx,-0x4(%rbp)
  102d06:	66 89 45 f8          	mov    %ax,-0x8(%rbp)
  102d0a:	0f b7 45 f8          	movzwl -0x8(%rbp),%eax
  102d0e:	0f b7 55 fc          	movzwl -0x4(%rbp),%edx
  102d12:	66 ef                	out    %ax,(%dx)
  102d14:	5d                   	pop    %rbp
  102d15:	c3                   	retq   

0000000000102d16 <__inbyte>:
  102d16:	55                   	push   %rbp
  102d17:	48 89 e5             	mov    %rsp,%rbp
  102d1a:	53                   	push   %rbx
  102d1b:	89 f8                	mov    %edi,%eax
  102d1d:	66 89 45 e4          	mov    %ax,-0x1c(%rbp)
  102d21:	0f b7 55 e4          	movzwl -0x1c(%rbp),%edx
  102d25:	66 89 55 e2          	mov    %dx,-0x1e(%rbp)
  102d29:	0f b7 55 e2          	movzwl -0x1e(%rbp),%edx
  102d2d:	ec                   	in     (%dx),%al
  102d2e:	89 c3                	mov    %eax,%ebx
  102d30:	88 5d f7             	mov    %bl,-0x9(%rbp)
  102d33:	0f b6 45 f7          	movzbl -0x9(%rbp),%eax
  102d37:	5b                   	pop    %rbx
  102d38:	5d                   	pop    %rbp
  102d39:	c3                   	retq   

0000000000102d3a <__outbyte>:
  102d3a:	55                   	push   %rbp
  102d3b:	48 89 e5             	mov    %rsp,%rbp
  102d3e:	89 fa                	mov    %edi,%edx
  102d40:	89 f0                	mov    %esi,%eax
  102d42:	66 89 55 fc          	mov    %dx,-0x4(%rbp)
  102d46:	88 45 f8             	mov    %al,-0x8(%rbp)
  102d49:	0f b6 45 f8          	movzbl -0x8(%rbp),%eax
  102d4d:	0f b7 55 fc          	movzwl -0x4(%rbp),%edx
  102d51:	ee                   	out    %al,(%dx)
  102d52:	5d                   	pop    %rbp
  102d53:	c3                   	retq   

0000000000102d54 <ata_read_sector>:
  102d54:	55                   	push   %rbp
  102d55:	48 89 e5             	mov    %rsp,%rbp
  102d58:	53                   	push   %rbx
  102d59:	48 83 ec 28          	sub    $0x28,%rsp
  102d5d:	48 89 7d e0          	mov    %rdi,-0x20(%rbp)
  102d61:	89 75 dc             	mov    %esi,-0x24(%rbp)
  102d64:	48 89 55 d0          	mov    %rdx,-0x30(%rbp)
  102d68:	90                   	nop
  102d69:	bf f7 01 00 00       	mov    $0x1f7,%edi
  102d6e:	e8 a3 ff ff ff       	callq  102d16 <__inbyte>
  102d73:	84 c0                	test   %al,%al
  102d75:	78 f2                	js     102d69 <ata_read_sector+0x15>
  102d77:	8b 45 dc             	mov    -0x24(%rbp),%eax
  102d7a:	c1 e8 18             	shr    $0x18,%eax
  102d7d:	83 e0 0f             	and    $0xf,%eax
  102d80:	83 c8 e0             	or     $0xffffffe0,%eax
  102d83:	0f b6 c0             	movzbl %al,%eax
  102d86:	89 c6                	mov    %eax,%esi
  102d88:	bf f6 01 00 00       	mov    $0x1f6,%edi
  102d8d:	e8 a8 ff ff ff       	callq  102d3a <__outbyte>
  102d92:	be 01 00 00 00       	mov    $0x1,%esi
  102d97:	bf f2 01 00 00       	mov    $0x1f2,%edi
  102d9c:	e8 99 ff ff ff       	callq  102d3a <__outbyte>
  102da1:	8b 45 dc             	mov    -0x24(%rbp),%eax
  102da4:	0f b6 c0             	movzbl %al,%eax
  102da7:	89 c6                	mov    %eax,%esi
  102da9:	bf f3 01 00 00       	mov    $0x1f3,%edi
  102dae:	e8 87 ff ff ff       	callq  102d3a <__outbyte>
  102db3:	8b 45 dc             	mov    -0x24(%rbp),%eax
  102db6:	c1 e8 08             	shr    $0x8,%eax
  102db9:	0f b6 c0             	movzbl %al,%eax
  102dbc:	89 c6                	mov    %eax,%esi
  102dbe:	bf f4 01 00 00       	mov    $0x1f4,%edi
  102dc3:	e8 72 ff ff ff       	callq  102d3a <__outbyte>
  102dc8:	8b 45 dc             	mov    -0x24(%rbp),%eax
  102dcb:	c1 e8 10             	shr    $0x10,%eax
  102dce:	0f b6 c0             	movzbl %al,%eax
  102dd1:	89 c6                	mov    %eax,%esi
  102dd3:	bf f5 01 00 00       	mov    $0x1f5,%edi
  102dd8:	e8 5d ff ff ff       	callq  102d3a <__outbyte>
  102ddd:	be 20 00 00 00       	mov    $0x20,%esi
  102de2:	bf f7 01 00 00       	mov    $0x1f7,%edi
  102de7:	e8 4e ff ff ff       	callq  102d3a <__outbyte>
  102dec:	90                   	nop
  102ded:	bf f7 01 00 00       	mov    $0x1f7,%edi
  102df2:	e8 1f ff ff ff       	callq  102d16 <__inbyte>
  102df7:	84 c0                	test   %al,%al
  102df9:	78 f2                	js     102ded <ata_read_sector+0x99>
  102dfb:	90                   	nop
  102dfc:	bf f7 01 00 00       	mov    $0x1f7,%edi
  102e01:	e8 10 ff ff ff       	callq  102d16 <__inbyte>
  102e06:	0f b6 c0             	movzbl %al,%eax
  102e09:	83 e0 08             	and    $0x8,%eax
  102e0c:	85 c0                	test   %eax,%eax
  102e0e:	74 ec                	je     102dfc <ata_read_sector+0xa8>
  102e10:	48 8b 45 d0          	mov    -0x30(%rbp),%rax
  102e14:	48 89 45 e8          	mov    %rax,-0x18(%rbp)
  102e18:	c7 45 f4 00 00 00 00 	movl   $0x0,-0xc(%rbp)
  102e1f:	eb 20                	jmp    102e41 <ata_read_sector+0xed>
  102e21:	8b 45 f4             	mov    -0xc(%rbp),%eax
  102e24:	48 98                	cltq   
  102e26:	48 01 c0             	add    %rax,%rax
  102e29:	48 89 c3             	mov    %rax,%rbx
  102e2c:	48 03 5d e8          	add    -0x18(%rbp),%rbx
  102e30:	bf f0 01 00 00       	mov    $0x1f0,%edi
  102e35:	e8 9a fe ff ff       	callq  102cd4 <__inword>
  102e3a:	66 89 03             	mov    %ax,(%rbx)
  102e3d:	83 45 f4 01          	addl   $0x1,-0xc(%rbp)
  102e41:	81 7d f4 ff 00 00 00 	cmpl   $0xff,-0xc(%rbp)
  102e48:	7e d7                	jle    102e21 <ata_read_sector+0xcd>
  102e4a:	b8 01 00 00 00       	mov    $0x1,%eax
  102e4f:	48 83 c4 28          	add    $0x28,%rsp
  102e53:	5b                   	pop    %rbx
  102e54:	5d                   	pop    %rbp
  102e55:	c3                   	retq   

0000000000102e56 <ata_write_sector>:
  102e56:	55                   	push   %rbp
  102e57:	48 89 e5             	mov    %rsp,%rbp
  102e5a:	48 83 ec 28          	sub    $0x28,%rsp
  102e5e:	48 89 7d e8          	mov    %rdi,-0x18(%rbp)
  102e62:	89 75 e4             	mov    %esi,-0x1c(%rbp)
  102e65:	48 89 55 d8          	mov    %rdx,-0x28(%rbp)
  102e69:	90                   	nop
  102e6a:	bf f7 01 00 00       	mov    $0x1f7,%edi
  102e6f:	e8 a2 fe ff ff       	callq  102d16 <__inbyte>
  102e74:	84 c0                	test   %al,%al
  102e76:	78 f2                	js     102e6a <ata_write_sector+0x14>
  102e78:	8b 45 e4             	mov    -0x1c(%rbp),%eax
  102e7b:	c1 e8 18             	shr    $0x18,%eax
  102e7e:	83 e0 0f             	and    $0xf,%eax
  102e81:	83 c8 e0             	or     $0xffffffe0,%eax
  102e84:	0f b6 c0             	movzbl %al,%eax
  102e87:	89 c6                	mov    %eax,%esi
  102e89:	bf f6 01 00 00       	mov    $0x1f6,%edi
  102e8e:	e8 a7 fe ff ff       	callq  102d3a <__outbyte>
  102e93:	be 01 00 00 00       	mov    $0x1,%esi
  102e98:	bf f2 01 00 00       	mov    $0x1f2,%edi
  102e9d:	e8 98 fe ff ff       	callq  102d3a <__outbyte>
  102ea2:	8b 45 e4             	mov    -0x1c(%rbp),%eax
  102ea5:	0f b6 c0             	movzbl %al,%eax
  102ea8:	89 c6                	mov    %eax,%esi
  102eaa:	bf f3 01 00 00       	mov    $0x1f3,%edi
  102eaf:	e8 86 fe ff ff       	callq  102d3a <__outbyte>
  102eb4:	8b 45 e4             	mov    -0x1c(%rbp),%eax
  102eb7:	c1 e8 08             	shr    $0x8,%eax
  102eba:	0f b6 c0             	movzbl %al,%eax
  102ebd:	89 c6                	mov    %eax,%esi
  102ebf:	bf f4 01 00 00       	mov    $0x1f4,%edi
  102ec4:	e8 71 fe ff ff       	callq  102d3a <__outbyte>
  102ec9:	8b 45 e4             	mov    -0x1c(%rbp),%eax
  102ecc:	c1 e8 10             	shr    $0x10,%eax
  102ecf:	0f b6 c0             	movzbl %al,%eax
  102ed2:	89 c6                	mov    %eax,%esi
  102ed4:	bf f5 01 00 00       	mov    $0x1f5,%edi
  102ed9:	e8 5c fe ff ff       	callq  102d3a <__outbyte>
  102ede:	be 30 00 00 00       	mov    $0x30,%esi
  102ee3:	bf f7 01 00 00       	mov    $0x1f7,%edi
  102ee8:	e8 4d fe ff ff       	callq  102d3a <__outbyte>
  102eed:	90                   	nop
  102eee:	bf f7 01 00 00       	mov    $0x1f7,%edi
  102ef3:	e8 1e fe ff ff       	callq  102d16 <__inbyte>
  102ef8:	84 c0                	test   %al,%al
  102efa:	78 f2                	js     102eee <ata_write_sector+0x98>
  102efc:	90                   	nop
  102efd:	bf f7 01 00 00       	mov    $0x1f7,%edi
  102f02:	e8 0f fe ff ff       	callq  102d16 <__inbyte>
  102f07:	0f b6 c0             	movzbl %al,%eax
  102f0a:	83 e0 08             	and    $0x8,%eax
  102f0d:	85 c0                	test   %eax,%eax
  102f0f:	74 ec                	je     102efd <ata_write_sector+0xa7>
  102f11:	48 8b 45 d8          	mov    -0x28(%rbp),%rax
  102f15:	48 89 45 f0          	mov    %rax,-0x10(%rbp)
  102f19:	c7 45 fc 00 00 00 00 	movl   $0x0,-0x4(%rbp)
  102f20:	eb 22                	jmp    102f44 <ata_write_sector+0xee>
  102f22:	8b 45 fc             	mov    -0x4(%rbp),%eax
  102f25:	48 98                	cltq   
  102f27:	48 01 c0             	add    %rax,%rax
  102f2a:	48 03 45 f0          	add    -0x10(%rbp),%rax
  102f2e:	0f b7 00             	movzwl (%rax),%eax
  102f31:	0f b7 c0             	movzwl %ax,%eax
  102f34:	89 c6                	mov    %eax,%esi
  102f36:	bf f0 01 00 00       	mov    $0x1f0,%edi
  102f3b:	e8 ba fd ff ff       	callq  102cfa <__outword>
  102f40:	83 45 fc 01          	addl   $0x1,-0x4(%rbp)
  102f44:	81 7d fc ff 00 00 00 	cmpl   $0xff,-0x4(%rbp)
  102f4b:	7e d5                	jle    102f22 <ata_write_sector+0xcc>
  102f4d:	b8 01 00 00 00       	mov    $0x1,%eax
  102f52:	c9                   	leaveq 
  102f53:	c3                   	retq   

0000000000102f54 <ata_init_primary>:
  102f54:	55                   	push   %rbp
  102f55:	48 89 e5             	mov    %rsp,%rbp
  102f58:	48 c7 05 1d 52 00 00 	movq   $0x102d54,0x521d(%rip)        # 108180 <ata0_dev>
  102f5f:	54 2d 10 00 
  102f63:	48 c7 05 1a 52 00 00 	movq   $0x102e56,0x521a(%rip)        # 108188 <ata0_dev+0x8>
  102f6a:	56 2e 10 00 
  102f6e:	48 c7 05 17 52 00 00 	movq   $0x0,0x5217(%rip)        # 108190 <ata0_dev+0x10>
  102f75:	00 00 00 00 
  102f79:	bf 80 81 10 00       	mov    $0x108180,%edi
  102f7e:	e8 05 00 00 00       	callq  102f88 <register_block_device>
  102f83:	5d                   	pop    %rbp
  102f84:	c3                   	retq   
  102f85:	00 00                	add    %al,(%rax)
	...

0000000000102f88 <register_block_device>:
  102f88:	55                   	push   %rbp
  102f89:	48 89 e5             	mov    %rsp,%rbp
  102f8c:	48 83 ec 10          	sub    $0x10,%rsp
  102f90:	48 89 7d f8          	mov    %rdi,-0x8(%rbp)
  102f94:	48 8b 45 f8          	mov    -0x8(%rbp),%rax
  102f98:	89 c2                	mov    %eax,%edx
  102f9a:	8b 05 20 52 00 00    	mov    0x5220(%rip),%eax        # 1081c0 <device_count>
  102fa0:	89 d1                	mov    %edx,%ecx
  102fa2:	89 c2                	mov    %eax,%edx
  102fa4:	be 38 6a 10 00       	mov    $0x106a38,%esi
  102fa9:	bf 0e 00 00 00       	mov    $0xe,%edi
  102fae:	b8 00 00 00 00       	mov    $0x0,%eax
  102fb3:	e8 ec d7 ff ff       	callq  1007a4 <myos_printf>
  102fb8:	8b 05 02 52 00 00    	mov    0x5202(%rip),%eax        # 1081c0 <device_count>
  102fbe:	83 f8 03             	cmp    $0x3,%eax
  102fc1:	7f 20                	jg     102fe3 <register_block_device+0x5b>
  102fc3:	8b 05 f7 51 00 00    	mov    0x51f7(%rip),%eax        # 1081c0 <device_count>
  102fc9:	48 63 d0             	movslq %eax,%rdx
  102fcc:	48 8b 4d f8          	mov    -0x8(%rbp),%rcx
  102fd0:	48 89 0c d5 a0 81 10 	mov    %rcx,0x1081a0(,%rdx,8)
  102fd7:	00 
  102fd8:	83 c0 01             	add    $0x1,%eax
  102fdb:	89 05 df 51 00 00    	mov    %eax,0x51df(%rip)        # 1081c0 <device_count>
  102fe1:	eb 19                	jmp    102ffc <register_block_device+0x74>
  102fe3:	b9 00 00 00 00       	mov    $0x0,%ecx
  102fe8:	ba 00 00 00 00       	mov    $0x0,%edx
  102fed:	be 20 04 00 00       	mov    $0x420,%esi
  102ff2:	bf 00 00 00 00       	mov    $0x0,%edi
  102ff7:	e8 52 f7 ff ff       	callq  10274e <bugcheck_system>
  102ffc:	c9                   	leaveq 
  102ffd:	c3                   	retq   

0000000000102ffe <get_block_device>:
  102ffe:	55                   	push   %rbp
  102fff:	48 89 e5             	mov    %rsp,%rbp
  103002:	89 7d fc             	mov    %edi,-0x4(%rbp)
  103005:	83 7d fc 00          	cmpl   $0x0,-0x4(%rbp)
  103009:	78 0b                	js     103016 <get_block_device+0x18>
  10300b:	8b 05 af 51 00 00    	mov    0x51af(%rip),%eax        # 1081c0 <device_count>
  103011:	39 45 fc             	cmp    %eax,-0x4(%rbp)
  103014:	7c 07                	jl     10301d <get_block_device+0x1f>
  103016:	b8 00 00 00 00       	mov    $0x0,%eax
  10301b:	eb 0d                	jmp    10302a <get_block_device+0x2c>
  10301d:	8b 45 fc             	mov    -0x4(%rbp),%eax
  103020:	48 98                	cltq   
  103022:	48 8b 04 c5 a0 81 10 	mov    0x1081a0(,%rax,8),%rax
  103029:	00 
  10302a:	5d                   	pop    %rbp
  10302b:	c3                   	retq   

000000000010302c <read_sector>:
  10302c:	55                   	push   %rbp
  10302d:	48 89 e5             	mov    %rsp,%rbp
  103030:	48 83 ec 10          	sub    $0x10,%rsp
  103034:	89 7d fc             	mov    %edi,-0x4(%rbp)
  103037:	48 89 75 f0          	mov    %rsi,-0x10(%rbp)
  10303b:	48 8b 05 fe 51 00 00 	mov    0x51fe(%rip),%rax        # 108240 <disk>
  103042:	4c 8b 00             	mov    (%rax),%r8
  103045:	48 8b 05 f4 51 00 00 	mov    0x51f4(%rip),%rax        # 108240 <disk>
  10304c:	48 8b 55 f0          	mov    -0x10(%rbp),%rdx
  103050:	8b 4d fc             	mov    -0x4(%rbp),%ecx
  103053:	89 ce                	mov    %ecx,%esi
  103055:	48 89 c7             	mov    %rax,%rdi
  103058:	41 ff d0             	callq  *%r8
  10305b:	c9                   	leaveq 
  10305c:	c3                   	retq   

000000000010305d <fat32_read_fat>:
  10305d:	55                   	push   %rbp
  10305e:	48 89 e5             	mov    %rsp,%rbp
  103061:	48 83 ec 20          	sub    $0x20,%rsp
  103065:	89 7d ec             	mov    %edi,-0x14(%rbp)
  103068:	8b 45 ec             	mov    -0x14(%rbp),%eax
  10306b:	c1 e0 02             	shl    $0x2,%eax
  10306e:	89 45 fc             	mov    %eax,-0x4(%rbp)
  103071:	8b 0d bd 51 00 00    	mov    0x51bd(%rip),%ecx        # 108234 <fs+0x14>
  103077:	8b 15 af 51 00 00    	mov    0x51af(%rip),%edx        # 10822c <fs+0xc>
  10307d:	89 55 e8             	mov    %edx,-0x18(%rbp)
  103080:	8b 45 fc             	mov    -0x4(%rbp),%eax
  103083:	ba 00 00 00 00       	mov    $0x0,%edx
  103088:	f7 75 e8             	divl   -0x18(%rbp)
  10308b:	01 c8                	add    %ecx,%eax
  10308d:	89 45 f8             	mov    %eax,-0x8(%rbp)
  103090:	8b 0d 96 51 00 00    	mov    0x5196(%rip),%ecx        # 10822c <fs+0xc>
  103096:	8b 45 fc             	mov    -0x4(%rbp),%eax
  103099:	ba 00 00 00 00       	mov    $0x0,%edx
  10309e:	f7 f1                	div    %ecx
  1030a0:	89 55 f4             	mov    %edx,-0xc(%rbp)
  1030a3:	8b 45 f4             	mov    -0xc(%rbp),%eax
  1030a6:	48 8d 55 f0          	lea    -0x10(%rbp),%rdx
  1030aa:	48 01 c2             	add    %rax,%rdx
  1030ad:	8b 45 f8             	mov    -0x8(%rbp),%eax
  1030b0:	48 89 d6             	mov    %rdx,%rsi
  1030b3:	89 c7                	mov    %eax,%edi
  1030b5:	e8 72 ff ff ff       	callq  10302c <read_sector>
  1030ba:	8b 45 f0             	mov    -0x10(%rbp),%eax
  1030bd:	25 ff ff ff 0f       	and    $0xfffffff,%eax
  1030c2:	c9                   	leaveq 
  1030c3:	c3                   	retq   

00000000001030c4 <first_sector_of_cluster>:
  1030c4:	55                   	push   %rbp
  1030c5:	48 89 e5             	mov    %rsp,%rbp
  1030c8:	89 7d fc             	mov    %edi,-0x4(%rbp)
  1030cb:	8b 15 4f 51 00 00    	mov    0x514f(%rip),%edx        # 108220 <fs>
  1030d1:	8b 45 fc             	mov    -0x4(%rbp),%eax
  1030d4:	8d 48 fe             	lea    -0x2(%rax),%ecx
  1030d7:	8b 05 53 51 00 00    	mov    0x5153(%rip),%eax        # 108230 <fs+0x10>
  1030dd:	0f af c1             	imul   %ecx,%eax
  1030e0:	01 d0                	add    %edx,%eax
  1030e2:	5d                   	pop    %rbp
  1030e3:	c3                   	retq   

00000000001030e4 <fat32_init>:
  1030e4:	55                   	push   %rbp
  1030e5:	48 89 e5             	mov    %rsp,%rbp
  1030e8:	48 81 ec 10 02 00 00 	sub    $0x210,%rsp
  1030ef:	89 bd fc fd ff ff    	mov    %edi,-0x204(%rbp)
  1030f5:	8b 85 fc fd ff ff    	mov    -0x204(%rbp),%eax
  1030fb:	89 c7                	mov    %eax,%edi
  1030fd:	e8 fc fe ff ff       	callq  102ffe <get_block_device>
  103102:	48 89 05 37 51 00 00 	mov    %rax,0x5137(%rip)        # 108240 <disk>
  103109:	48 8b 05 30 51 00 00 	mov    0x5130(%rip),%rax        # 108240 <disk>
  103110:	48 85 c0             	test   %rax,%rax
  103113:	75 0a                	jne    10311f <fat32_init+0x3b>
  103115:	b8 00 00 00 00       	mov    $0x0,%eax
  10311a:	e9 ba 00 00 00       	jmpq   1031d9 <fat32_init+0xf5>
  10311f:	48 8d 85 00 fe ff ff 	lea    -0x200(%rbp),%rax
  103126:	48 89 c6             	mov    %rax,%rsi
  103129:	bf 00 00 00 00       	mov    $0x0,%edi
  10312e:	e8 f9 fe ff ff       	callq  10302c <read_sector>
  103133:	83 f0 01             	xor    $0x1,%eax
  103136:	84 c0                	test   %al,%al
  103138:	74 0a                	je     103144 <fat32_init+0x60>
  10313a:	b8 00 00 00 00       	mov    $0x0,%eax
  10313f:	e9 95 00 00 00       	jmpq   1031d9 <fat32_init+0xf5>
  103144:	48 8d 85 00 fe ff ff 	lea    -0x200(%rbp),%rax
  10314b:	ba 34 00 00 00       	mov    $0x34,%edx
  103150:	48 89 c6             	mov    %rax,%rsi
  103153:	bf e0 81 10 00       	mov    $0x1081e0,%edi
  103158:	e8 2b e9 ff ff       	callq  101a88 <kmemcpy>
  10315d:	0f b7 05 87 50 00 00 	movzwl 0x5087(%rip),%eax        # 1081eb <bpb+0xb>
  103164:	0f b7 c0             	movzwl %ax,%eax
  103167:	89 05 bf 50 00 00    	mov    %eax,0x50bf(%rip)        # 10822c <fs+0xc>
  10316d:	0f b6 05 79 50 00 00 	movzbl 0x5079(%rip),%eax        # 1081ed <bpb+0xd>
  103174:	0f b6 c0             	movzbl %al,%eax
  103177:	89 05 b3 50 00 00    	mov    %eax,0x50b3(%rip)        # 108230 <fs+0x10>
  10317d:	0f b7 05 6a 50 00 00 	movzwl 0x506a(%rip),%eax        # 1081ee <bpb+0xe>
  103184:	66 89 05 ad 50 00 00 	mov    %ax,0x50ad(%rip)        # 108238 <fs+0x18>
  10318b:	8b 05 73 50 00 00    	mov    0x5073(%rip),%eax        # 108204 <bpb+0x24>
  103191:	89 05 91 50 00 00    	mov    %eax,0x5091(%rip)        # 108228 <fs+0x8>
  103197:	8b 05 6f 50 00 00    	mov    0x506f(%rip),%eax        # 10820c <bpb+0x2c>
  10319d:	89 05 81 50 00 00    	mov    %eax,0x5081(%rip)        # 108224 <fs+0x4>
  1031a3:	0f b7 05 44 50 00 00 	movzwl 0x5044(%rip),%eax        # 1081ee <bpb+0xe>
  1031aa:	0f b7 c0             	movzwl %ax,%eax
  1031ad:	89 05 81 50 00 00    	mov    %eax,0x5081(%rip)        # 108234 <fs+0x14>
  1031b3:	8b 15 7b 50 00 00    	mov    0x507b(%rip),%edx        # 108234 <fs+0x14>
  1031b9:	0f b6 05 30 50 00 00 	movzbl 0x5030(%rip),%eax        # 1081f0 <bpb+0x10>
  1031c0:	0f b6 c8             	movzbl %al,%ecx
  1031c3:	8b 05 5f 50 00 00    	mov    0x505f(%rip),%eax        # 108228 <fs+0x8>
  1031c9:	0f af c1             	imul   %ecx,%eax
  1031cc:	01 d0                	add    %edx,%eax
  1031ce:	89 05 4c 50 00 00    	mov    %eax,0x504c(%rip)        # 108220 <fs>
  1031d4:	b8 01 00 00 00       	mov    $0x1,%eax
  1031d9:	c9                   	leaveq 
  1031da:	c3                   	retq   

00000000001031db <toupper>:
  1031db:	55                   	push   %rbp
  1031dc:	48 89 e5             	mov    %rsp,%rbp
  1031df:	89 7d fc             	mov    %edi,-0x4(%rbp)
  1031e2:	83 7d fc 60          	cmpl   $0x60,-0x4(%rbp)
  1031e6:	7e 0e                	jle    1031f6 <toupper+0x1b>
  1031e8:	83 7d fc 7a          	cmpl   $0x7a,-0x4(%rbp)
  1031ec:	7f 08                	jg     1031f6 <toupper+0x1b>
  1031ee:	8b 45 fc             	mov    -0x4(%rbp),%eax
  1031f1:	83 e8 20             	sub    $0x20,%eax
  1031f4:	eb 03                	jmp    1031f9 <toupper+0x1e>
  1031f6:	8b 45 fc             	mov    -0x4(%rbp),%eax
  1031f9:	5d                   	pop    %rbp
  1031fa:	c3                   	retq   

00000000001031fb <cmp_name>:
  1031fb:	55                   	push   %rbp
  1031fc:	48 89 e5             	mov    %rsp,%rbp
  1031ff:	53                   	push   %rbx
  103200:	48 83 ec 30          	sub    $0x30,%rsp
  103204:	48 89 7d d0          	mov    %rdi,-0x30(%rbp)
  103208:	48 89 75 c8          	mov    %rsi,-0x38(%rbp)
  10320c:	48 c7 45 d8 00 00 00 	movq   $0x0,-0x28(%rbp)
  103213:	00 
  103214:	c7 45 e0 00 00 00 00 	movl   $0x0,-0x20(%rbp)
  10321b:	c7 45 f4 00 00 00 00 	movl   $0x0,-0xc(%rbp)
  103222:	eb 19                	jmp    10323d <cmp_name+0x42>
  103224:	8b 45 f4             	mov    -0xc(%rbp),%eax
  103227:	48 98                	cltq   
  103229:	48 03 45 d0          	add    -0x30(%rbp),%rax
  10322d:	0f b6 10             	movzbl (%rax),%edx
  103230:	8b 45 f4             	mov    -0xc(%rbp),%eax
  103233:	48 98                	cltq   
  103235:	88 54 05 d8          	mov    %dl,-0x28(%rbp,%rax,1)
  103239:	83 45 f4 01          	addl   $0x1,-0xc(%rbp)
  10323d:	83 7d f4 0a          	cmpl   $0xa,-0xc(%rbp)
  103241:	7e e1                	jle    103224 <cmp_name+0x29>
  103243:	c7 45 f0 00 00 00 00 	movl   $0x0,-0x10(%rbp)
  10324a:	eb 3b                	jmp    103287 <cmp_name+0x8c>
  10324c:	8b 45 f0             	mov    -0x10(%rbp),%eax
  10324f:	48 98                	cltq   
  103251:	0f b6 44 05 d8       	movzbl -0x28(%rbp,%rax,1),%eax
  103256:	0f be c0             	movsbl %al,%eax
  103259:	89 c7                	mov    %eax,%edi
  10325b:	e8 7b ff ff ff       	callq  1031db <toupper>
  103260:	89 c3                	mov    %eax,%ebx
  103262:	8b 45 f0             	mov    -0x10(%rbp),%eax
  103265:	48 98                	cltq   
  103267:	48 03 45 c8          	add    -0x38(%rbp),%rax
  10326b:	0f b6 00             	movzbl (%rax),%eax
  10326e:	0f be c0             	movsbl %al,%eax
  103271:	89 c7                	mov    %eax,%edi
  103273:	e8 63 ff ff ff       	callq  1031db <toupper>
  103278:	39 c3                	cmp    %eax,%ebx
  10327a:	74 07                	je     103283 <cmp_name+0x88>
  10327c:	b8 00 00 00 00       	mov    $0x0,%eax
  103281:	eb 0f                	jmp    103292 <cmp_name+0x97>
  103283:	83 45 f0 01          	addl   $0x1,-0x10(%rbp)
  103287:	83 7d f0 0a          	cmpl   $0xa,-0x10(%rbp)
  10328b:	7e bf                	jle    10324c <cmp_name+0x51>
  10328d:	b8 01 00 00 00       	mov    $0x1,%eax
  103292:	48 83 c4 30          	add    $0x30,%rsp
  103296:	5b                   	pop    %rbx
  103297:	5d                   	pop    %rbp
  103298:	c3                   	retq   

0000000000103299 <fat32_list_root>:
  103299:	55                   	push   %rbp
  10329a:	48 89 e5             	mov    %rsp,%rbp
  10329d:	48 81 ec 20 02 00 00 	sub    $0x220,%rsp
  1032a4:	8b 05 7a 4f 00 00    	mov    0x4f7a(%rip),%eax        # 108224 <fs+0x4>
  1032aa:	89 45 fc             	mov    %eax,-0x4(%rbp)
  1032ad:	8b 45 fc             	mov    -0x4(%rbp),%eax
  1032b0:	89 c7                	mov    %eax,%edi
  1032b2:	e8 0d fe ff ff       	callq  1030c4 <first_sector_of_cluster>
  1032b7:	89 45 e4             	mov    %eax,-0x1c(%rbp)
  1032ba:	c7 45 f8 00 00 00 00 	movl   $0x0,-0x8(%rbp)
  1032c1:	e9 e5 00 00 00       	jmpq   1033ab <fat32_list_root+0x112>
  1032c6:	8b 45 f8             	mov    -0x8(%rbp),%eax
  1032c9:	8b 55 e4             	mov    -0x1c(%rbp),%edx
  1032cc:	01 c2                	add    %eax,%edx
  1032ce:	48 8d 85 e0 fd ff ff 	lea    -0x220(%rbp),%rax
  1032d5:	48 89 c6             	mov    %rax,%rsi
  1032d8:	89 d7                	mov    %edx,%edi
  1032da:	e8 4d fd ff ff       	callq  10302c <read_sector>
  1032df:	83 f0 01             	xor    $0x1,%eax
  1032e2:	84 c0                	test   %al,%al
  1032e4:	0f 85 ec 00 00 00    	jne    1033d6 <fat32_list_root+0x13d>
  1032ea:	48 8d 85 e0 fd ff ff 	lea    -0x220(%rbp),%rax
  1032f1:	48 89 45 f0          	mov    %rax,-0x10(%rbp)
  1032f5:	c7 45 ec 00 00 00 00 	movl   $0x0,-0x14(%rbp)
  1032fc:	e9 94 00 00 00       	jmpq   103395 <fat32_list_root+0xfc>
  103301:	48 8b 45 f0          	mov    -0x10(%rbp),%rax
  103305:	0f b6 00             	movzbl (%rax),%eax
  103308:	84 c0                	test   %al,%al
  10330a:	0f 84 c9 00 00 00    	je     1033d9 <fat32_list_root+0x140>
  103310:	48 8b 45 f0          	mov    -0x10(%rbp),%rax
  103314:	0f b6 00             	movzbl (%rax),%eax
  103317:	3c e5                	cmp    $0xe5,%al
  103319:	74 6d                	je     103388 <fat32_list_root+0xef>
  10331b:	48 8b 45 f0          	mov    -0x10(%rbp),%rax
  10331f:	0f b6 40 0b          	movzbl 0xb(%rax),%eax
  103323:	3c 0f                	cmp    $0xf,%al
  103325:	74 64                	je     10338b <fat32_list_root+0xf2>
  103327:	be 03 00 00 00       	mov    $0x3,%esi
  10332c:	bf 58 6d 10 00       	mov    $0x106d58,%edi
  103331:	b8 00 00 00 00       	mov    $0x0,%eax
  103336:	e8 26 cf ff ff       	callq  100261 <print_to_screen>
  10333b:	c7 45 e8 00 00 00 00 	movl   $0x0,-0x18(%rbp)
  103342:	eb 28                	jmp    10336c <fat32_list_root+0xd3>
  103344:	48 8b 55 f0          	mov    -0x10(%rbp),%rdx
  103348:	8b 45 e8             	mov    -0x18(%rbp),%eax
  10334b:	0f b6 04 02          	movzbl (%rdx,%rax,1),%eax
  10334f:	0f be c0             	movsbl %al,%eax
  103352:	89 c2                	mov    %eax,%edx
  103354:	be 60 6d 10 00       	mov    $0x106d60,%esi
  103359:	bf 07 00 00 00       	mov    $0x7,%edi
  10335e:	b8 00 00 00 00       	mov    $0x0,%eax
  103363:	e8 3c d4 ff ff       	callq  1007a4 <myos_printf>
  103368:	83 45 e8 01          	addl   $0x1,-0x18(%rbp)
  10336c:	83 7d e8 0a          	cmpl   $0xa,-0x18(%rbp)
  103370:	76 d2                	jbe    103344 <fat32_list_root+0xab>
  103372:	be 03 00 00 00       	mov    $0x3,%esi
  103377:	bf 63 6d 10 00       	mov    $0x106d63,%edi
  10337c:	b8 00 00 00 00       	mov    $0x0,%eax
  103381:	e8 db ce ff ff       	callq  100261 <print_to_screen>
  103386:	eb 04                	jmp    10338c <fat32_list_root+0xf3>
  103388:	90                   	nop
  103389:	eb 01                	jmp    10338c <fat32_list_root+0xf3>
  10338b:	90                   	nop
  10338c:	83 45 ec 01          	addl   $0x1,-0x14(%rbp)
  103390:	48 83 45 f0 20       	addq   $0x20,-0x10(%rbp)
  103395:	8b 05 91 4e 00 00    	mov    0x4e91(%rip),%eax        # 10822c <fs+0xc>
  10339b:	c1 e8 05             	shr    $0x5,%eax
  10339e:	3b 45 ec             	cmp    -0x14(%rbp),%eax
  1033a1:	0f 87 5a ff ff ff    	ja     103301 <fat32_list_root+0x68>
  1033a7:	83 45 f8 01          	addl   $0x1,-0x8(%rbp)
  1033ab:	8b 05 7f 4e 00 00    	mov    0x4e7f(%rip),%eax        # 108230 <fs+0x10>
  1033b1:	3b 45 f8             	cmp    -0x8(%rbp),%eax
  1033b4:	0f 87 0c ff ff ff    	ja     1032c6 <fat32_list_root+0x2d>
  1033ba:	8b 45 fc             	mov    -0x4(%rbp),%eax
  1033bd:	89 c7                	mov    %eax,%edi
  1033bf:	e8 99 fc ff ff       	callq  10305d <fat32_read_fat>
  1033c4:	89 45 fc             	mov    %eax,-0x4(%rbp)
  1033c7:	81 7d fc f7 ff ff 0f 	cmpl   $0xffffff7,-0x4(%rbp)
  1033ce:	0f 86 d9 fe ff ff    	jbe    1032ad <fat32_list_root+0x14>
  1033d4:	eb 04                	jmp    1033da <fat32_list_root+0x141>
  1033d6:	90                   	nop
  1033d7:	eb 01                	jmp    1033da <fat32_list_root+0x141>
  1033d9:	90                   	nop
  1033da:	c9                   	leaveq 
  1033db:	c3                   	retq   

00000000001033dc <fat32_read_file>:
  1033dc:	55                   	push   %rbp
  1033dd:	48 89 e5             	mov    %rsp,%rbp
  1033e0:	48 81 ec 60 04 00 00 	sub    $0x460,%rsp
  1033e7:	48 89 bd b8 fb ff ff 	mov    %rdi,-0x448(%rbp)
  1033ee:	48 89 b5 b0 fb ff ff 	mov    %rsi,-0x450(%rbp)
  1033f5:	89 95 ac fb ff ff    	mov    %edx,-0x454(%rbp)
  1033fb:	8b 05 23 4e 00 00    	mov    0x4e23(%rip),%eax        # 108224 <fs+0x4>
  103401:	89 45 fc             	mov    %eax,-0x4(%rbp)
  103404:	8b 45 fc             	mov    -0x4(%rbp),%eax
  103407:	89 c7                	mov    %eax,%edi
  103409:	e8 b6 fc ff ff       	callq  1030c4 <first_sector_of_cluster>
  10340e:	89 45 c8             	mov    %eax,-0x38(%rbp)
  103411:	c7 45 f8 00 00 00 00 	movl   $0x0,-0x8(%rbp)
  103418:	e9 dd 01 00 00       	jmpq   1035fa <fat32_read_file+0x21e>
  10341d:	8b 45 f8             	mov    -0x8(%rbp),%eax
  103420:	8b 55 c8             	mov    -0x38(%rbp),%edx
  103423:	01 c2                	add    %eax,%edx
  103425:	48 8d 85 c0 fb ff ff 	lea    -0x440(%rbp),%rax
  10342c:	48 89 c6             	mov    %rax,%rsi
  10342f:	89 d7                	mov    %edx,%edi
  103431:	e8 f6 fb ff ff       	callq  10302c <read_sector>
  103436:	83 f0 01             	xor    $0x1,%eax
  103439:	84 c0                	test   %al,%al
  10343b:	74 0a                	je     103447 <fat32_read_file+0x6b>
  10343d:	b8 00 00 00 00       	mov    $0x0,%eax
  103442:	e9 e1 01 00 00       	jmpq   103628 <fat32_read_file+0x24c>
  103447:	48 8d 85 c0 fb ff ff 	lea    -0x440(%rbp),%rax
  10344e:	48 89 45 f0          	mov    %rax,-0x10(%rbp)
  103452:	c7 45 ec 00 00 00 00 	movl   $0x0,-0x14(%rbp)
  103459:	e9 86 01 00 00       	jmpq   1035e4 <fat32_read_file+0x208>
  10345e:	48 8b 45 f0          	mov    -0x10(%rbp),%rax
  103462:	0f b6 00             	movzbl (%rax),%eax
  103465:	84 c0                	test   %al,%al
  103467:	75 0a                	jne    103473 <fat32_read_file+0x97>
  103469:	b8 00 00 00 00       	mov    $0x0,%eax
  10346e:	e9 b5 01 00 00       	jmpq   103628 <fat32_read_file+0x24c>
  103473:	48 8b 45 f0          	mov    -0x10(%rbp),%rax
  103477:	0f b6 40 0b          	movzbl 0xb(%rax),%eax
  10347b:	3c 0f                	cmp    $0xf,%al
  10347d:	0f 84 57 01 00 00    	je     1035da <fat32_read_file+0x1fe>
  103483:	48 8b 45 f0          	mov    -0x10(%rbp),%rax
  103487:	48 8b 95 b8 fb ff ff 	mov    -0x448(%rbp),%rdx
  10348e:	48 89 d6             	mov    %rdx,%rsi
  103491:	48 89 c7             	mov    %rax,%rdi
  103494:	e8 62 fd ff ff       	callq  1031fb <cmp_name>
  103499:	84 c0                	test   %al,%al
  10349b:	0f 84 3a 01 00 00    	je     1035db <fat32_read_file+0x1ff>
  1034a1:	48 8b 45 f0          	mov    -0x10(%rbp),%rax
  1034a5:	0f b7 40 14          	movzwl 0x14(%rax),%eax
  1034a9:	0f b7 c0             	movzwl %ax,%eax
  1034ac:	89 c2                	mov    %eax,%edx
  1034ae:	c1 e2 10             	shl    $0x10,%edx
  1034b1:	48 8b 45 f0          	mov    -0x10(%rbp),%rax
  1034b5:	0f b7 40 1a          	movzwl 0x1a(%rax),%eax
  1034b9:	0f b7 c0             	movzwl %ax,%eax
  1034bc:	09 d0                	or     %edx,%eax
  1034be:	89 45 e8             	mov    %eax,-0x18(%rbp)
  1034c1:	48 8b 45 f0          	mov    -0x10(%rbp),%rax
  1034c5:	8b 40 1c             	mov    0x1c(%rax),%eax
  1034c8:	89 45 e4             	mov    %eax,-0x1c(%rbp)
  1034cb:	48 8b 85 b0 fb ff ff 	mov    -0x450(%rbp),%rax
  1034d2:	48 89 45 d8          	mov    %rax,-0x28(%rbp)
  1034d6:	e9 dc 00 00 00       	jmpq   1035b7 <fat32_read_file+0x1db>
  1034db:	8b 45 e8             	mov    -0x18(%rbp),%eax
  1034de:	89 c7                	mov    %eax,%edi
  1034e0:	e8 df fb ff ff       	callq  1030c4 <first_sector_of_cluster>
  1034e5:	89 45 c4             	mov    %eax,-0x3c(%rbp)
  1034e8:	c7 45 d4 00 00 00 00 	movl   $0x0,-0x2c(%rbp)
  1034ef:	e9 98 00 00 00       	jmpq   10358c <fat32_read_file+0x1b0>
  1034f4:	8b 45 d4             	mov    -0x2c(%rbp),%eax
  1034f7:	8b 55 c4             	mov    -0x3c(%rbp),%edx
  1034fa:	01 c2                	add    %eax,%edx
  1034fc:	48 8d 85 c0 fd ff ff 	lea    -0x240(%rbp),%rax
  103503:	48 89 c6             	mov    %rax,%rsi
  103506:	89 d7                	mov    %edx,%edi
  103508:	e8 1f fb ff ff       	callq  10302c <read_sector>
  10350d:	83 f0 01             	xor    $0x1,%eax
  103510:	84 c0                	test   %al,%al
  103512:	74 0a                	je     10351e <fat32_read_file+0x142>
  103514:	b8 00 00 00 00       	mov    $0x0,%eax
  103519:	e9 0a 01 00 00       	jmpq   103628 <fat32_read_file+0x24c>
  10351e:	8b 05 08 4d 00 00    	mov    0x4d08(%rip),%eax        # 10822c <fs+0xc>
  103524:	89 45 d0             	mov    %eax,-0x30(%rbp)
  103527:	8b 45 d0             	mov    -0x30(%rbp),%eax
  10352a:	3b 45 e4             	cmp    -0x1c(%rbp),%eax
  10352d:	76 06                	jbe    103535 <fat32_read_file+0x159>
  10352f:	8b 45 e4             	mov    -0x1c(%rbp),%eax
  103532:	89 45 d0             	mov    %eax,-0x30(%rbp)
  103535:	8b 45 d0             	mov    -0x30(%rbp),%eax
  103538:	3b 85 ac fb ff ff    	cmp    -0x454(%rbp),%eax
  10353e:	76 09                	jbe    103549 <fat32_read_file+0x16d>
  103540:	8b 85 ac fb ff ff    	mov    -0x454(%rbp),%eax
  103546:	89 45 d0             	mov    %eax,-0x30(%rbp)
  103549:	c7 45 cc 00 00 00 00 	movl   $0x0,-0x34(%rbp)
  103550:	eb 18                	jmp    10356a <fat32_read_file+0x18e>
  103552:	8b 45 cc             	mov    -0x34(%rbp),%eax
  103555:	48 03 45 d8          	add    -0x28(%rbp),%rax
  103559:	8b 55 cc             	mov    -0x34(%rbp),%edx
  10355c:	0f b6 94 15 c0 fd ff 	movzbl -0x240(%rbp,%rdx,1),%edx
  103563:	ff 
  103564:	88 10                	mov    %dl,(%rax)
  103566:	83 45 cc 01          	addl   $0x1,-0x34(%rbp)
  10356a:	8b 45 cc             	mov    -0x34(%rbp),%eax
  10356d:	3b 45 d0             	cmp    -0x30(%rbp),%eax
  103570:	72 e0                	jb     103552 <fat32_read_file+0x176>
  103572:	8b 45 d0             	mov    -0x30(%rbp),%eax
  103575:	48 01 45 d8          	add    %rax,-0x28(%rbp)
  103579:	8b 45 d0             	mov    -0x30(%rbp),%eax
  10357c:	29 45 e4             	sub    %eax,-0x1c(%rbp)
  10357f:	8b 45 d0             	mov    -0x30(%rbp),%eax
  103582:	29 85 ac fb ff ff    	sub    %eax,-0x454(%rbp)
  103588:	83 45 d4 01          	addl   $0x1,-0x2c(%rbp)
  10358c:	8b 05 9e 4c 00 00    	mov    0x4c9e(%rip),%eax        # 108230 <fs+0x10>
  103592:	3b 45 d4             	cmp    -0x2c(%rbp),%eax
  103595:	76 13                	jbe    1035aa <fat32_read_file+0x1ce>
  103597:	83 7d e4 00          	cmpl   $0x0,-0x1c(%rbp)
  10359b:	74 0d                	je     1035aa <fat32_read_file+0x1ce>
  10359d:	83 bd ac fb ff ff 00 	cmpl   $0x0,-0x454(%rbp)
  1035a4:	0f 85 4a ff ff ff    	jne    1034f4 <fat32_read_file+0x118>
  1035aa:	8b 45 e8             	mov    -0x18(%rbp),%eax
  1035ad:	89 c7                	mov    %eax,%edi
  1035af:	e8 a9 fa ff ff       	callq  10305d <fat32_read_fat>
  1035b4:	89 45 e8             	mov    %eax,-0x18(%rbp)
  1035b7:	81 7d e8 f7 ff ff 0f 	cmpl   $0xffffff7,-0x18(%rbp)
  1035be:	77 13                	ja     1035d3 <fat32_read_file+0x1f7>
  1035c0:	83 7d e4 00          	cmpl   $0x0,-0x1c(%rbp)
  1035c4:	74 0d                	je     1035d3 <fat32_read_file+0x1f7>
  1035c6:	83 bd ac fb ff ff 00 	cmpl   $0x0,-0x454(%rbp)
  1035cd:	0f 85 08 ff ff ff    	jne    1034db <fat32_read_file+0xff>
  1035d3:	b8 01 00 00 00       	mov    $0x1,%eax
  1035d8:	eb 4e                	jmp    103628 <fat32_read_file+0x24c>
  1035da:	90                   	nop
  1035db:	83 45 ec 01          	addl   $0x1,-0x14(%rbp)
  1035df:	48 83 45 f0 20       	addq   $0x20,-0x10(%rbp)
  1035e4:	8b 05 42 4c 00 00    	mov    0x4c42(%rip),%eax        # 10822c <fs+0xc>
  1035ea:	c1 e8 05             	shr    $0x5,%eax
  1035ed:	3b 45 ec             	cmp    -0x14(%rbp),%eax
  1035f0:	0f 87 68 fe ff ff    	ja     10345e <fat32_read_file+0x82>
  1035f6:	83 45 f8 01          	addl   $0x1,-0x8(%rbp)
  1035fa:	8b 05 30 4c 00 00    	mov    0x4c30(%rip),%eax        # 108230 <fs+0x10>
  103600:	3b 45 f8             	cmp    -0x8(%rbp),%eax
  103603:	0f 87 14 fe ff ff    	ja     10341d <fat32_read_file+0x41>
  103609:	8b 45 fc             	mov    -0x4(%rbp),%eax
  10360c:	89 c7                	mov    %eax,%edi
  10360e:	e8 4a fa ff ff       	callq  10305d <fat32_read_fat>
  103613:	89 45 fc             	mov    %eax,-0x4(%rbp)
  103616:	81 7d fc f7 ff ff 0f 	cmpl   $0xffffff7,-0x4(%rbp)
  10361d:	0f 86 e1 fd ff ff    	jbe    103404 <fat32_read_file+0x28>
  103623:	b8 00 00 00 00       	mov    $0x0,%eax
  103628:	c9                   	leaveq 
  103629:	c3                   	retq   
	...

000000000010362c <plot_pixel>:
  10362c:	55                   	push   %rbp
  10362d:	48 89 e5             	mov    %rsp,%rbp
  103630:	48 89 7d e8          	mov    %rdi,-0x18(%rbp)
  103634:	89 75 e4             	mov    %esi,-0x1c(%rbp)
  103637:	89 55 e0             	mov    %edx,-0x20(%rbp)
  10363a:	89 4d dc             	mov    %ecx,-0x24(%rbp)
  10363d:	48 8b 45 e8          	mov    -0x18(%rbp),%rax
  103641:	48 8b 00             	mov    (%rax),%rax
  103644:	48 89 45 f8          	mov    %rax,-0x8(%rbp)
  103648:	48 8b 45 e8          	mov    -0x18(%rbp),%rax
  10364c:	8b 40 18             	mov    0x18(%rax),%eax
  10364f:	89 45 f4             	mov    %eax,-0xc(%rbp)
  103652:	8b 45 e0             	mov    -0x20(%rbp),%eax
  103655:	0f af 45 f4          	imul   -0xc(%rbp),%eax
  103659:	03 45 e4             	add    -0x1c(%rbp),%eax
  10365c:	89 c0                	mov    %eax,%eax
  10365e:	48 c1 e0 02          	shl    $0x2,%rax
  103662:	48 03 45 f8          	add    -0x8(%rbp),%rax
  103666:	8b 55 dc             	mov    -0x24(%rbp),%edx
  103669:	89 10                	mov    %edx,(%rax)
  10366b:	5d                   	pop    %rbp
  10366c:	c3                   	retq   

000000000010366d <draw_char>:
  10366d:	55                   	push   %rbp
  10366e:	48 89 e5             	mov    %rsp,%rbp
  103671:	53                   	push   %rbx
  103672:	48 83 ec 38          	sub    $0x38,%rsp
  103676:	48 89 7d d0          	mov    %rdi,-0x30(%rbp)
  10367a:	89 f0                	mov    %esi,%eax
  10367c:	89 55 c8             	mov    %edx,-0x38(%rbp)
  10367f:	89 4d c4             	mov    %ecx,-0x3c(%rbp)
  103682:	44 89 45 c0          	mov    %r8d,-0x40(%rbp)
  103686:	88 45 cc             	mov    %al,-0x34(%rbp)
  103689:	80 7d cc 1f          	cmpb   $0x1f,-0x34(%rbp)
  10368d:	0f 8e 23 01 00 00    	jle    1037b6 <draw_char+0x149>
  103693:	80 7d cc 7f          	cmpb   $0x7f,-0x34(%rbp)
  103697:	0f 84 19 01 00 00    	je     1037b6 <draw_char+0x149>
  10369d:	48 0f be 45 cc       	movsbq -0x34(%rbp),%rax
  1036a2:	48 83 e8 20          	sub    $0x20,%rax
  1036a6:	48 c1 e0 03          	shl    $0x3,%rax
  1036aa:	48 05 80 6d 10 00    	add    $0x106d80,%rax
  1036b0:	48 89 45 e0          	mov    %rax,-0x20(%rbp)
  1036b4:	c7 45 f4 00 00 00 00 	movl   $0x0,-0xc(%rbp)
  1036bb:	e9 ea 00 00 00       	jmpq   1037aa <draw_char+0x13d>
  1036c0:	c7 45 f0 00 00 00 00 	movl   $0x0,-0x10(%rbp)
  1036c7:	e9 d0 00 00 00       	jmpq   10379c <draw_char+0x12f>
  1036cc:	8b 45 f4             	mov    -0xc(%rbp),%eax
  1036cf:	48 98                	cltq   
  1036d1:	48 03 45 e0          	add    -0x20(%rbp),%rax
  1036d5:	0f b6 00             	movzbl (%rax),%eax
  1036d8:	0f b6 d0             	movzbl %al,%edx
  1036db:	8b 45 f0             	mov    -0x10(%rbp),%eax
  1036de:	89 d3                	mov    %edx,%ebx
  1036e0:	89 c1                	mov    %eax,%ecx
  1036e2:	d3 fb                	sar    %cl,%ebx
  1036e4:	89 d8                	mov    %ebx,%eax
  1036e6:	83 e0 01             	and    $0x1,%eax
  1036e9:	84 c0                	test   %al,%al
  1036eb:	0f 84 a7 00 00 00    	je     103798 <draw_char+0x12b>
  1036f1:	c7 45 ec 00 00 00 00 	movl   $0x0,-0x14(%rbp)
  1036f8:	e9 91 00 00 00       	jmpq   10378e <draw_char+0x121>
  1036fd:	f3 0f 2a 45 f4       	cvtsi2ssl -0xc(%rbp),%xmm0
  103702:	f3 0f 10 0d 6e 39 00 	movss  0x396e(%rip),%xmm1        # 107078 <font8x8_basic+0x2f8>
  103709:	00 
  10370a:	f3 0f 59 c8          	mulss  %xmm0,%xmm1
  10370e:	f3 0f 2a 45 ec       	cvtsi2ssl -0x14(%rbp),%xmm0
  103713:	f3 0f 58 c1          	addss  %xmm1,%xmm0
  103717:	f3 48 0f 2c c0       	cvttss2si %xmm0,%rax
  10371c:	03 45 c4             	add    -0x3c(%rbp),%eax
  10371f:	89 45 dc             	mov    %eax,-0x24(%rbp)
  103722:	48 8b 45 d0          	mov    -0x30(%rbp),%rax
  103726:	8b 40 14             	mov    0x14(%rax),%eax
  103729:	3b 45 dc             	cmp    -0x24(%rbp),%eax
  10372c:	76 5b                	jbe    103789 <draw_char+0x11c>
  10372e:	c7 45 e8 00 00 00 00 	movl   $0x0,-0x18(%rbp)
  103735:	eb 4a                	jmp    103781 <draw_char+0x114>
  103737:	f3 0f 2a 45 f0       	cvtsi2ssl -0x10(%rbp),%xmm0
  10373c:	f3 0f 10 0d 34 39 00 	movss  0x3934(%rip),%xmm1        # 107078 <font8x8_basic+0x2f8>
  103743:	00 
  103744:	f3 0f 59 c8          	mulss  %xmm0,%xmm1
  103748:	f3 0f 2a 45 e8       	cvtsi2ssl -0x18(%rbp),%xmm0
  10374d:	f3 0f 58 c1          	addss  %xmm1,%xmm0
  103751:	f3 48 0f 2c c0       	cvttss2si %xmm0,%rax
  103756:	03 45 c8             	add    -0x38(%rbp),%eax
  103759:	89 45 d8             	mov    %eax,-0x28(%rbp)
  10375c:	48 8b 45 d0          	mov    -0x30(%rbp),%rax
  103760:	8b 40 10             	mov    0x10(%rax),%eax
  103763:	3b 45 d8             	cmp    -0x28(%rbp),%eax
  103766:	76 15                	jbe    10377d <draw_char+0x110>
  103768:	8b 4d c0             	mov    -0x40(%rbp),%ecx
  10376b:	8b 55 dc             	mov    -0x24(%rbp),%edx
  10376e:	8b 75 d8             	mov    -0x28(%rbp),%esi
  103771:	48 8b 45 d0          	mov    -0x30(%rbp),%rax
  103775:	48 89 c7             	mov    %rax,%rdi
  103778:	e8 af fe ff ff       	callq  10362c <plot_pixel>
  10377d:	83 45 e8 01          	addl   $0x1,-0x18(%rbp)
  103781:	83 7d e8 01          	cmpl   $0x1,-0x18(%rbp)
  103785:	7e b0                	jle    103737 <draw_char+0xca>
  103787:	eb 01                	jmp    10378a <draw_char+0x11d>
  103789:	90                   	nop
  10378a:	83 45 ec 01          	addl   $0x1,-0x14(%rbp)
  10378e:	83 7d ec 01          	cmpl   $0x1,-0x14(%rbp)
  103792:	0f 8e 65 ff ff ff    	jle    1036fd <draw_char+0x90>
  103798:	83 45 f0 01          	addl   $0x1,-0x10(%rbp)
  10379c:	83 7d f0 07          	cmpl   $0x7,-0x10(%rbp)
  1037a0:	0f 8e 26 ff ff ff    	jle    1036cc <draw_char+0x5f>
  1037a6:	83 45 f4 01          	addl   $0x1,-0xc(%rbp)
  1037aa:	83 7d f4 07          	cmpl   $0x7,-0xc(%rbp)
  1037ae:	0f 8e 0c ff ff ff    	jle    1036c0 <draw_char+0x53>
  1037b4:	eb 01                	jmp    1037b7 <draw_char+0x14a>
  1037b6:	90                   	nop
  1037b7:	48 83 c4 38          	add    $0x38,%rsp
  1037bb:	5b                   	pop    %rbx
  1037bc:	5d                   	pop    %rbp
  1037bd:	c3                   	retq   

00000000001037be <draw_string>:
  1037be:	55                   	push   %rbp
  1037bf:	48 89 e5             	mov    %rsp,%rbp
  1037c2:	48 83 ec 20          	sub    $0x20,%rsp
  1037c6:	48 89 7d f8          	mov    %rdi,-0x8(%rbp)
  1037ca:	48 89 75 f0          	mov    %rsi,-0x10(%rbp)
  1037ce:	89 55 ec             	mov    %edx,-0x14(%rbp)
  1037d1:	89 4d e8             	mov    %ecx,-0x18(%rbp)
  1037d4:	44 89 45 e4          	mov    %r8d,-0x1c(%rbp)
  1037d8:	eb 5f                	jmp    103839 <draw_string+0x7b>
  1037da:	48 8b 45 f0          	mov    -0x10(%rbp),%rax
  1037de:	0f b6 00             	movzbl (%rax),%eax
  1037e1:	0f be f0             	movsbl %al,%esi
  1037e4:	48 83 45 f0 01       	addq   $0x1,-0x10(%rbp)
  1037e9:	8b 7d e4             	mov    -0x1c(%rbp),%edi
  1037ec:	8b 4d e8             	mov    -0x18(%rbp),%ecx
  1037ef:	8b 55 ec             	mov    -0x14(%rbp),%edx
  1037f2:	48 8b 45 f8          	mov    -0x8(%rbp),%rax
  1037f6:	41 89 f8             	mov    %edi,%r8d
  1037f9:	48 89 c7             	mov    %rax,%rdi
  1037fc:	e8 6c fe ff ff       	callq  10366d <draw_char>
  103801:	8b 45 ec             	mov    -0x14(%rbp),%eax
  103804:	48 85 c0             	test   %rax,%rax
  103807:	78 07                	js     103810 <draw_string+0x52>
  103809:	f3 48 0f 2a c0       	cvtsi2ss %rax,%xmm0
  10380e:	eb 15                	jmp    103825 <draw_string+0x67>
  103810:	48 89 c2             	mov    %rax,%rdx
  103813:	48 d1 ea             	shr    %rdx
  103816:	83 e0 01             	and    $0x1,%eax
  103819:	48 09 c2             	or     %rax,%rdx
  10381c:	f3 48 0f 2a c2       	cvtsi2ss %rdx,%xmm0
  103821:	f3 0f 58 c0          	addss  %xmm0,%xmm0
  103825:	f3 0f 10 0d 4f 38 00 	movss  0x384f(%rip),%xmm1        # 10707c <font8x8_basic+0x2fc>
  10382c:	00 
  10382d:	f3 0f 58 c1          	addss  %xmm1,%xmm0
  103831:	f3 48 0f 2c c0       	cvttss2si %xmm0,%rax
  103836:	89 45 ec             	mov    %eax,-0x14(%rbp)
  103839:	48 8b 45 f0          	mov    -0x10(%rbp),%rax
  10383d:	0f b6 00             	movzbl (%rax),%eax
  103840:	84 c0                	test   %al,%al
  103842:	75 96                	jne    1037da <draw_string+0x1c>
  103844:	c9                   	leaveq 
  103845:	c3                   	retq   

0000000000103846 <char_width>:
  103846:	55                   	push   %rbp
  103847:	48 89 e5             	mov    %rsp,%rbp
  10384a:	b8 0c 00 00 00       	mov    $0xc,%eax
  10384f:	5d                   	pop    %rbp
  103850:	c3                   	retq   

0000000000103851 <line_height>:
  103851:	55                   	push   %rbp
  103852:	48 89 e5             	mov    %rsp,%rbp
  103855:	b8 0c 00 00 00       	mov    $0xc,%eax
  10385a:	5d                   	pop    %rbp
  10385b:	c3                   	retq   

000000000010385c <gop_scroll>:
  10385c:	55                   	push   %rbp
  10385d:	48 89 e5             	mov    %rsp,%rbp
  103860:	48 83 ec 40          	sub    $0x40,%rsp
  103864:	48 89 7d c8          	mov    %rdi,-0x38(%rbp)
  103868:	48 8b 45 c8          	mov    -0x38(%rbp),%rax
  10386c:	48 8b 00             	mov    (%rax),%rax
  10386f:	48 89 45 e8          	mov    %rax,-0x18(%rbp)
  103873:	48 8b 45 c8          	mov    -0x38(%rbp),%rax
  103877:	8b 40 18             	mov    0x18(%rax),%eax
  10387a:	89 45 e4             	mov    %eax,-0x1c(%rbp)
  10387d:	48 8b 45 c8          	mov    -0x38(%rbp),%rax
  103881:	8b 40 14             	mov    0x14(%rax),%eax
  103884:	89 45 e0             	mov    %eax,-0x20(%rbp)
  103887:	48 8b 45 c8          	mov    -0x38(%rbp),%rax
  10388b:	8b 40 10             	mov    0x10(%rax),%eax
  10388e:	89 45 dc             	mov    %eax,-0x24(%rbp)
  103891:	b8 00 00 00 00       	mov    $0x0,%eax
  103896:	e8 b6 ff ff ff       	callq  103851 <line_height>
  10389b:	89 45 d8             	mov    %eax,-0x28(%rbp)
  10389e:	c7 45 fc 00 00 00 00 	movl   $0x0,-0x4(%rbp)
  1038a5:	eb 43                	jmp    1038ea <gop_scroll+0x8e>
  1038a7:	8b 45 dc             	mov    -0x24(%rbp),%eax
  1038aa:	8d 14 85 00 00 00 00 	lea    0x0(,%rax,4),%edx
  1038b1:	8b 45 d8             	mov    -0x28(%rbp),%eax
  1038b4:	8b 4d fc             	mov    -0x4(%rbp),%ecx
  1038b7:	01 c8                	add    %ecx,%eax
  1038b9:	0f af 45 e4          	imul   -0x1c(%rbp),%eax
  1038bd:	89 c0                	mov    %eax,%eax
  1038bf:	48 c1 e0 02          	shl    $0x2,%rax
  1038c3:	48 89 c1             	mov    %rax,%rcx
  1038c6:	48 03 4d e8          	add    -0x18(%rbp),%rcx
  1038ca:	8b 45 fc             	mov    -0x4(%rbp),%eax
  1038cd:	0f af 45 e4          	imul   -0x1c(%rbp),%eax
  1038d1:	89 c0                	mov    %eax,%eax
  1038d3:	48 c1 e0 02          	shl    $0x2,%rax
  1038d7:	48 03 45 e8          	add    -0x18(%rbp),%rax
  1038db:	48 89 ce             	mov    %rcx,%rsi
  1038de:	48 89 c7             	mov    %rax,%rdi
  1038e1:	e8 a2 e1 ff ff       	callq  101a88 <kmemcpy>
  1038e6:	83 45 fc 01          	addl   $0x1,-0x4(%rbp)
  1038ea:	8b 45 d8             	mov    -0x28(%rbp),%eax
  1038ed:	8b 55 e0             	mov    -0x20(%rbp),%edx
  1038f0:	89 d1                	mov    %edx,%ecx
  1038f2:	29 c1                	sub    %eax,%ecx
  1038f4:	89 c8                	mov    %ecx,%eax
  1038f6:	3b 45 fc             	cmp    -0x4(%rbp),%eax
  1038f9:	77 ac                	ja     1038a7 <gop_scroll+0x4b>
  1038fb:	8b 45 d8             	mov    -0x28(%rbp),%eax
  1038fe:	8b 55 e0             	mov    -0x20(%rbp),%edx
  103901:	89 d1                	mov    %edx,%ecx
  103903:	29 c1                	sub    %eax,%ecx
  103905:	89 c8                	mov    %ecx,%eax
  103907:	89 45 f8             	mov    %eax,-0x8(%rbp)
  10390a:	eb 33                	jmp    10393f <gop_scroll+0xe3>
  10390c:	c7 45 f4 00 00 00 00 	movl   $0x0,-0xc(%rbp)
  103913:	eb 1e                	jmp    103933 <gop_scroll+0xd7>
  103915:	8b 45 f8             	mov    -0x8(%rbp),%eax
  103918:	0f af 45 e4          	imul   -0x1c(%rbp),%eax
  10391c:	03 45 f4             	add    -0xc(%rbp),%eax
  10391f:	89 c0                	mov    %eax,%eax
  103921:	48 c1 e0 02          	shl    $0x2,%rax
  103925:	48 03 45 e8          	add    -0x18(%rbp),%rax
  103929:	c7 00 00 00 00 00    	movl   $0x0,(%rax)
  10392f:	83 45 f4 01          	addl   $0x1,-0xc(%rbp)
  103933:	8b 45 f4             	mov    -0xc(%rbp),%eax
  103936:	3b 45 dc             	cmp    -0x24(%rbp),%eax
  103939:	72 da                	jb     103915 <gop_scroll+0xb9>
  10393b:	83 45 f8 01          	addl   $0x1,-0x8(%rbp)
  10393f:	8b 45 f8             	mov    -0x8(%rbp),%eax
  103942:	3b 45 e0             	cmp    -0x20(%rbp),%eax
  103945:	72 c5                	jb     10390c <gop_scroll+0xb0>
  103947:	8b 05 ff 48 00 00    	mov    0x48ff(%rip),%eax        # 10824c <cursor_y>
  10394d:	2b 45 d8             	sub    -0x28(%rbp),%eax
  103950:	89 05 f6 48 00 00    	mov    %eax,0x48f6(%rip)        # 10824c <cursor_y>
  103956:	8b 05 f0 48 00 00    	mov    0x48f0(%rip),%eax        # 10824c <cursor_y>
  10395c:	85 c0                	test   %eax,%eax
  10395e:	79 0a                	jns    10396a <gop_scroll+0x10e>
  103960:	c7 05 e2 48 00 00 00 	movl   $0x0,0x48e2(%rip)        # 10824c <cursor_y>
  103967:	00 00 00 
  10396a:	c9                   	leaveq 
  10396b:	c3                   	retq   

000000000010396c <gop_put_char>:
  10396c:	55                   	push   %rbp
  10396d:	48 89 e5             	mov    %rsp,%rbp
  103970:	48 83 ec 10          	sub    $0x10,%rsp
  103974:	48 89 7d f8          	mov    %rdi,-0x8(%rbp)
  103978:	89 f0                	mov    %esi,%eax
  10397a:	89 55 f0             	mov    %edx,-0x10(%rbp)
  10397d:	88 45 f4             	mov    %al,-0xc(%rbp)
  103980:	80 7d f4 0a          	cmpb   $0xa,-0xc(%rbp)
  103984:	75 54                	jne    1039da <gop_put_char+0x6e>
  103986:	c7 05 b8 48 00 00 00 	movl   $0x0,0x48b8(%rip)        # 108248 <cursor_x>
  10398d:	00 00 00 
  103990:	b8 00 00 00 00       	mov    $0x0,%eax
  103995:	e8 b7 fe ff ff       	callq  103851 <line_height>
  10399a:	8b 15 ac 48 00 00    	mov    0x48ac(%rip),%edx        # 10824c <cursor_y>
  1039a0:	01 d0                	add    %edx,%eax
  1039a2:	89 05 a4 48 00 00    	mov    %eax,0x48a4(%rip)        # 10824c <cursor_y>
  1039a8:	b8 00 00 00 00       	mov    $0x0,%eax
  1039ad:	e8 9f fe ff ff       	callq  103851 <line_height>
  1039b2:	8b 15 94 48 00 00    	mov    0x4894(%rip),%edx        # 10824c <cursor_y>
  1039b8:	01 c2                	add    %eax,%edx
  1039ba:	48 8b 45 f8          	mov    -0x8(%rbp),%rax
  1039be:	8b 40 14             	mov    0x14(%rax),%eax
  1039c1:	39 c2                	cmp    %eax,%edx
  1039c3:	0f 86 ca 00 00 00    	jbe    103a93 <gop_put_char+0x127>
  1039c9:	48 8b 45 f8          	mov    -0x8(%rbp),%rax
  1039cd:	48 89 c7             	mov    %rax,%rdi
  1039d0:	e8 87 fe ff ff       	callq  10385c <gop_scroll>
  1039d5:	e9 b9 00 00 00       	jmpq   103a93 <gop_put_char+0x127>
  1039da:	80 7d f4 0d          	cmpb   $0xd,-0xc(%rbp)
  1039de:	75 0f                	jne    1039ef <gop_put_char+0x83>
  1039e0:	c7 05 5e 48 00 00 00 	movl   $0x0,0x485e(%rip)        # 108248 <cursor_x>
  1039e7:	00 00 00 
  1039ea:	e9 a5 00 00 00       	jmpq   103a94 <gop_put_char+0x128>
  1039ef:	8b 0d 57 48 00 00    	mov    0x4857(%rip),%ecx        # 10824c <cursor_y>
  1039f5:	8b 15 4d 48 00 00    	mov    0x484d(%rip),%edx        # 108248 <cursor_x>
  1039fb:	0f be 75 f4          	movsbl -0xc(%rbp),%esi
  1039ff:	8b 7d f0             	mov    -0x10(%rbp),%edi
  103a02:	48 8b 45 f8          	mov    -0x8(%rbp),%rax
  103a06:	41 89 f8             	mov    %edi,%r8d
  103a09:	48 89 c7             	mov    %rax,%rdi
  103a0c:	e8 5c fc ff ff       	callq  10366d <draw_char>
  103a11:	b8 00 00 00 00       	mov    $0x0,%eax
  103a16:	e8 2b fe ff ff       	callq  103846 <char_width>
  103a1b:	8b 15 27 48 00 00    	mov    0x4827(%rip),%edx        # 108248 <cursor_x>
  103a21:	01 d0                	add    %edx,%eax
  103a23:	89 05 1f 48 00 00    	mov    %eax,0x481f(%rip)        # 108248 <cursor_x>
  103a29:	b8 00 00 00 00       	mov    $0x0,%eax
  103a2e:	e8 13 fe ff ff       	callq  103846 <char_width>
  103a33:	8b 15 0f 48 00 00    	mov    0x480f(%rip),%edx        # 108248 <cursor_x>
  103a39:	01 c2                	add    %eax,%edx
  103a3b:	48 8b 45 f8          	mov    -0x8(%rbp),%rax
  103a3f:	8b 40 10             	mov    0x10(%rax),%eax
  103a42:	39 c2                	cmp    %eax,%edx
  103a44:	76 4e                	jbe    103a94 <gop_put_char+0x128>
  103a46:	c7 05 f8 47 00 00 00 	movl   $0x0,0x47f8(%rip)        # 108248 <cursor_x>
  103a4d:	00 00 00 
  103a50:	b8 00 00 00 00       	mov    $0x0,%eax
  103a55:	e8 f7 fd ff ff       	callq  103851 <line_height>
  103a5a:	8b 15 ec 47 00 00    	mov    0x47ec(%rip),%edx        # 10824c <cursor_y>
  103a60:	01 d0                	add    %edx,%eax
  103a62:	89 05 e4 47 00 00    	mov    %eax,0x47e4(%rip)        # 10824c <cursor_y>
  103a68:	b8 00 00 00 00       	mov    $0x0,%eax
  103a6d:	e8 df fd ff ff       	callq  103851 <line_height>
  103a72:	8b 15 d4 47 00 00    	mov    0x47d4(%rip),%edx        # 10824c <cursor_y>
  103a78:	01 c2                	add    %eax,%edx
  103a7a:	48 8b 45 f8          	mov    -0x8(%rbp),%rax
  103a7e:	8b 40 14             	mov    0x14(%rax),%eax
  103a81:	39 c2                	cmp    %eax,%edx
  103a83:	76 0f                	jbe    103a94 <gop_put_char+0x128>
  103a85:	48 8b 45 f8          	mov    -0x8(%rbp),%rax
  103a89:	48 89 c7             	mov    %rax,%rdi
  103a8c:	e8 cb fd ff ff       	callq  10385c <gop_scroll>
  103a91:	eb 01                	jmp    103a94 <gop_put_char+0x128>
  103a93:	90                   	nop
  103a94:	c9                   	leaveq 
  103a95:	c3                   	retq   

0000000000103a96 <gop_puts>:
  103a96:	55                   	push   %rbp
  103a97:	48 89 e5             	mov    %rsp,%rbp
  103a9a:	48 83 ec 20          	sub    $0x20,%rsp
  103a9e:	48 89 7d f8          	mov    %rdi,-0x8(%rbp)
  103aa2:	48 89 75 f0          	mov    %rsi,-0x10(%rbp)
  103aa6:	89 55 ec             	mov    %edx,-0x14(%rbp)
  103aa9:	eb 20                	jmp    103acb <gop_puts+0x35>
  103aab:	48 8b 45 f0          	mov    -0x10(%rbp),%rax
  103aaf:	0f b6 00             	movzbl (%rax),%eax
  103ab2:	0f be c8             	movsbl %al,%ecx
  103ab5:	48 83 45 f0 01       	addq   $0x1,-0x10(%rbp)
  103aba:	8b 55 ec             	mov    -0x14(%rbp),%edx
  103abd:	48 8b 45 f8          	mov    -0x8(%rbp),%rax
  103ac1:	89 ce                	mov    %ecx,%esi
  103ac3:	48 89 c7             	mov    %rax,%rdi
  103ac6:	e8 a1 fe ff ff       	callq  10396c <gop_put_char>
  103acb:	48 8b 45 f0          	mov    -0x10(%rbp),%rax
  103acf:	0f b6 00             	movzbl (%rax),%eax
  103ad2:	84 c0                	test   %al,%al
  103ad4:	75 d5                	jne    103aab <gop_puts+0x15>
  103ad6:	c9                   	leaveq 
  103ad7:	c3                   	retq   

0000000000103ad8 <gop_print_dec>:
  103ad8:	55                   	push   %rbp
  103ad9:	48 89 e5             	mov    %rsp,%rbp
  103adc:	48 83 ec 40          	sub    $0x40,%rsp
  103ae0:	48 89 7d d8          	mov    %rdi,-0x28(%rbp)
  103ae4:	89 75 d4             	mov    %esi,-0x2c(%rbp)
  103ae7:	89 55 d0             	mov    %edx,-0x30(%rbp)
  103aea:	c7 45 fc 00 00 00 00 	movl   $0x0,-0x4(%rbp)
  103af1:	83 7d d4 00          	cmpl   $0x0,-0x2c(%rbp)
  103af5:	75 58                	jne    103b4f <gop_print_dec+0x77>
  103af7:	8b 45 fc             	mov    -0x4(%rbp),%eax
  103afa:	48 98                	cltq   
  103afc:	c6 44 05 e0 30       	movb   $0x30,-0x20(%rbp,%rax,1)
  103b01:	83 45 fc 01          	addl   $0x1,-0x4(%rbp)
  103b05:	eb 4e                	jmp    103b55 <gop_print_dec+0x7d>
  103b07:	8b 4d d4             	mov    -0x2c(%rbp),%ecx
  103b0a:	ba cd cc cc cc       	mov    $0xcccccccd,%edx
  103b0f:	89 c8                	mov    %ecx,%eax
  103b11:	f7 e2                	mul    %edx
  103b13:	c1 ea 03             	shr    $0x3,%edx
  103b16:	89 d0                	mov    %edx,%eax
  103b18:	c1 e0 02             	shl    $0x2,%eax
  103b1b:	01 d0                	add    %edx,%eax
  103b1d:	01 c0                	add    %eax,%eax
  103b1f:	89 ca                	mov    %ecx,%edx
  103b21:	29 c2                	sub    %eax,%edx
  103b23:	89 d0                	mov    %edx,%eax
  103b25:	83 c0 30             	add    $0x30,%eax
  103b28:	89 c2                	mov    %eax,%edx
  103b2a:	8b 45 fc             	mov    -0x4(%rbp),%eax
  103b2d:	48 98                	cltq   
  103b2f:	88 54 05 e0          	mov    %dl,-0x20(%rbp,%rax,1)
  103b33:	83 45 fc 01          	addl   $0x1,-0x4(%rbp)
  103b37:	8b 4d d4             	mov    -0x2c(%rbp),%ecx
  103b3a:	89 4d cc             	mov    %ecx,-0x34(%rbp)
  103b3d:	ba cd cc cc cc       	mov    $0xcccccccd,%edx
  103b42:	8b 45 cc             	mov    -0x34(%rbp),%eax
  103b45:	f7 e2                	mul    %edx
  103b47:	89 d0                	mov    %edx,%eax
  103b49:	c1 e8 03             	shr    $0x3,%eax
  103b4c:	89 45 d4             	mov    %eax,-0x2c(%rbp)
  103b4f:	83 7d d4 00          	cmpl   $0x0,-0x2c(%rbp)
  103b53:	75 b2                	jne    103b07 <gop_print_dec+0x2f>
  103b55:	8b 45 fc             	mov    -0x4(%rbp),%eax
  103b58:	48 98                	cltq   
  103b5a:	c6 44 05 e0 00       	movb   $0x0,-0x20(%rbp,%rax,1)
  103b5f:	c7 45 f8 00 00 00 00 	movl   $0x0,-0x8(%rbp)
  103b66:	eb 49                	jmp    103bb1 <gop_print_dec+0xd9>
  103b68:	8b 45 f8             	mov    -0x8(%rbp),%eax
  103b6b:	48 98                	cltq   
  103b6d:	0f b6 44 05 e0       	movzbl -0x20(%rbp,%rax,1),%eax
  103b72:	88 45 f7             	mov    %al,-0x9(%rbp)
  103b75:	8b 45 f8             	mov    -0x8(%rbp),%eax
  103b78:	8b 55 fc             	mov    -0x4(%rbp),%edx
  103b7b:	89 d1                	mov    %edx,%ecx
  103b7d:	29 c1                	sub    %eax,%ecx
  103b7f:	89 c8                	mov    %ecx,%eax
  103b81:	83 e8 01             	sub    $0x1,%eax
  103b84:	48 98                	cltq   
  103b86:	0f b6 54 05 e0       	movzbl -0x20(%rbp,%rax,1),%edx
  103b8b:	8b 45 f8             	mov    -0x8(%rbp),%eax
  103b8e:	48 98                	cltq   
  103b90:	88 54 05 e0          	mov    %dl,-0x20(%rbp,%rax,1)
  103b94:	8b 45 f8             	mov    -0x8(%rbp),%eax
  103b97:	8b 55 fc             	mov    -0x4(%rbp),%edx
  103b9a:	89 d1                	mov    %edx,%ecx
  103b9c:	29 c1                	sub    %eax,%ecx
  103b9e:	89 c8                	mov    %ecx,%eax
  103ba0:	83 e8 01             	sub    $0x1,%eax
  103ba3:	48 98                	cltq   
  103ba5:	0f b6 55 f7          	movzbl -0x9(%rbp),%edx
  103ba9:	88 54 05 e0          	mov    %dl,-0x20(%rbp,%rax,1)
  103bad:	83 45 f8 01          	addl   $0x1,-0x8(%rbp)
  103bb1:	8b 45 fc             	mov    -0x4(%rbp),%eax
  103bb4:	89 c2                	mov    %eax,%edx
  103bb6:	c1 ea 1f             	shr    $0x1f,%edx
  103bb9:	01 d0                	add    %edx,%eax
  103bbb:	d1 f8                	sar    %eax
  103bbd:	3b 45 f8             	cmp    -0x8(%rbp),%eax
  103bc0:	7f a6                	jg     103b68 <gop_print_dec+0x90>
  103bc2:	8b 55 d0             	mov    -0x30(%rbp),%edx
  103bc5:	48 8d 4d e0          	lea    -0x20(%rbp),%rcx
  103bc9:	48 8b 45 d8          	mov    -0x28(%rbp),%rax
  103bcd:	48 89 ce             	mov    %rcx,%rsi
  103bd0:	48 89 c7             	mov    %rax,%rdi
  103bd3:	e8 be fe ff ff       	callq  103a96 <gop_puts>
  103bd8:	c9                   	leaveq 
  103bd9:	c3                   	retq   

0000000000103bda <gop_print_hex>:
  103bda:	55                   	push   %rbp
  103bdb:	48 89 e5             	mov    %rsp,%rbp
  103bde:	53                   	push   %rbx
  103bdf:	48 83 ec 28          	sub    $0x28,%rsp
  103be3:	48 89 7d d8          	mov    %rdi,-0x28(%rbp)
  103be7:	89 75 d4             	mov    %esi,-0x2c(%rbp)
  103bea:	89 55 d0             	mov    %edx,-0x30(%rbp)
  103bed:	c7 45 e0 30 78 30 30 	movl   $0x30307830,-0x20(%rbp)
  103bf4:	c7 45 e4 30 30 30 30 	movl   $0x30303030,-0x1c(%rbp)
  103bfb:	66 c7 45 e8 30 30    	movw   $0x3030,-0x18(%rbp)
  103c01:	c6 45 ea 00          	movb   $0x0,-0x16(%rbp)
  103c05:	c7 45 ec 00 00 00 00 	movl   $0x0,-0x14(%rbp)
  103c0c:	eb 43                	jmp    103c51 <gop_print_hex+0x77>
  103c0e:	b8 07 00 00 00       	mov    $0x7,%eax
  103c13:	2b 45 ec             	sub    -0x14(%rbp),%eax
  103c16:	c1 e0 02             	shl    $0x2,%eax
  103c19:	8b 55 d4             	mov    -0x2c(%rbp),%edx
  103c1c:	89 d3                	mov    %edx,%ebx
  103c1e:	89 c1                	mov    %eax,%ecx
  103c20:	d3 eb                	shr    %cl,%ebx
  103c22:	89 d8                	mov    %ebx,%eax
  103c24:	83 e0 0f             	and    $0xf,%eax
  103c27:	88 45 eb             	mov    %al,-0x15(%rbp)
  103c2a:	8b 45 ec             	mov    -0x14(%rbp),%eax
  103c2d:	8d 50 02             	lea    0x2(%rax),%edx
  103c30:	80 7d eb 09          	cmpb   $0x9,-0x15(%rbp)
  103c34:	77 09                	ja     103c3f <gop_print_hex+0x65>
  103c36:	0f b6 45 eb          	movzbl -0x15(%rbp),%eax
  103c3a:	83 c0 30             	add    $0x30,%eax
  103c3d:	eb 07                	jmp    103c46 <gop_print_hex+0x6c>
  103c3f:	0f b6 45 eb          	movzbl -0x15(%rbp),%eax
  103c43:	83 c0 57             	add    $0x57,%eax
  103c46:	48 63 d2             	movslq %edx,%rdx
  103c49:	88 44 15 e0          	mov    %al,-0x20(%rbp,%rdx,1)
  103c4d:	83 45 ec 01          	addl   $0x1,-0x14(%rbp)
  103c51:	83 7d ec 07          	cmpl   $0x7,-0x14(%rbp)
  103c55:	7e b7                	jle    103c0e <gop_print_hex+0x34>
  103c57:	8b 55 d0             	mov    -0x30(%rbp),%edx
  103c5a:	48 8d 4d e0          	lea    -0x20(%rbp),%rcx
  103c5e:	48 8b 45 d8          	mov    -0x28(%rbp),%rax
  103c62:	48 89 ce             	mov    %rcx,%rsi
  103c65:	48 89 c7             	mov    %rax,%rdi
  103c68:	e8 29 fe ff ff       	callq  103a96 <gop_puts>
  103c6d:	48 83 c4 28          	add    $0x28,%rsp
  103c71:	5b                   	pop    %rbx
  103c72:	5d                   	pop    %rbp
  103c73:	c3                   	retq   

0000000000103c74 <gop_printf>:
  103c74:	55                   	push   %rbp
  103c75:	48 89 e5             	mov    %rsp,%rbp
  103c78:	48 81 ec 20 01 00 00 	sub    $0x120,%rsp
  103c7f:	48 89 bd f8 fe ff ff 	mov    %rdi,-0x108(%rbp)
  103c86:	89 b5 f4 fe ff ff    	mov    %esi,-0x10c(%rbp)
  103c8c:	48 89 8d 68 ff ff ff 	mov    %rcx,-0x98(%rbp)
  103c93:	4c 89 85 70 ff ff ff 	mov    %r8,-0x90(%rbp)
  103c9a:	4c 89 8d 78 ff ff ff 	mov    %r9,-0x88(%rbp)
  103ca1:	84 c0                	test   %al,%al
  103ca3:	74 20                	je     103cc5 <gop_printf+0x51>
  103ca5:	0f 29 45 80          	movaps %xmm0,-0x80(%rbp)
  103ca9:	0f 29 4d 90          	movaps %xmm1,-0x70(%rbp)
  103cad:	0f 29 55 a0          	movaps %xmm2,-0x60(%rbp)
  103cb1:	0f 29 5d b0          	movaps %xmm3,-0x50(%rbp)
  103cb5:	0f 29 65 c0          	movaps %xmm4,-0x40(%rbp)
  103cb9:	0f 29 6d d0          	movaps %xmm5,-0x30(%rbp)
  103cbd:	0f 29 75 e0          	movaps %xmm6,-0x20(%rbp)
  103cc1:	0f 29 7d f0          	movaps %xmm7,-0x10(%rbp)
  103cc5:	48 89 95 e8 fe ff ff 	mov    %rdx,-0x118(%rbp)
  103ccc:	c7 85 08 ff ff ff 18 	movl   $0x18,-0xf8(%rbp)
  103cd3:	00 00 00 
  103cd6:	c7 85 0c ff ff ff 30 	movl   $0x30,-0xf4(%rbp)
  103cdd:	00 00 00 
  103ce0:	48 8d 45 10          	lea    0x10(%rbp),%rax
  103ce4:	48 89 85 10 ff ff ff 	mov    %rax,-0xf0(%rbp)
  103ceb:	48 8d 85 50 ff ff ff 	lea    -0xb0(%rbp),%rax
  103cf2:	48 89 85 18 ff ff ff 	mov    %rax,-0xe8(%rbp)
  103cf9:	c7 85 4c ff ff ff 00 	movl   $0x0,-0xb4(%rbp)
  103d00:	00 00 00 
  103d03:	e9 d3 03 00 00       	jmpq   1040db <gop_printf+0x467>
  103d08:	8b 85 4c ff ff ff    	mov    -0xb4(%rbp),%eax
  103d0e:	48 98                	cltq   
  103d10:	48 03 85 e8 fe ff ff 	add    -0x118(%rbp),%rax
  103d17:	0f b6 00             	movzbl (%rax),%eax
  103d1a:	3c 25                	cmp    $0x25,%al
  103d1c:	0f 85 86 03 00 00    	jne    1040a8 <gop_printf+0x434>
  103d22:	8b 85 4c ff ff ff    	mov    -0xb4(%rbp),%eax
  103d28:	48 98                	cltq   
  103d2a:	48 83 c0 01          	add    $0x1,%rax
  103d2e:	48 03 85 e8 fe ff ff 	add    -0x118(%rbp),%rax
  103d35:	0f b6 00             	movzbl (%rax),%eax
  103d38:	84 c0                	test   %al,%al
  103d3a:	0f 84 68 03 00 00    	je     1040a8 <gop_printf+0x434>
  103d40:	83 85 4c ff ff ff 01 	addl   $0x1,-0xb4(%rbp)
  103d47:	8b 85 4c ff ff ff    	mov    -0xb4(%rbp),%eax
  103d4d:	48 98                	cltq   
  103d4f:	48 03 85 e8 fe ff ff 	add    -0x118(%rbp),%rax
  103d56:	0f b6 00             	movzbl (%rax),%eax
  103d59:	88 85 4b ff ff ff    	mov    %al,-0xb5(%rbp)
  103d5f:	0f be 85 4b ff ff ff 	movsbl -0xb5(%rbp),%eax
  103d66:	83 f8 70             	cmp    $0x70,%eax
  103d69:	0f 84 88 01 00 00    	je     103ef7 <gop_printf+0x283>
  103d6f:	83 f8 70             	cmp    $0x70,%eax
  103d72:	7f 1c                	jg     103d90 <gop_printf+0x11c>
  103d74:	83 f8 63             	cmp    $0x63,%eax
  103d77:	0f 84 ec 01 00 00    	je     103f69 <gop_printf+0x2f5>
  103d7d:	83 f8 64             	cmp    $0x64,%eax
  103d80:	74 2e                	je     103db0 <gop_printf+0x13c>
  103d82:	83 f8 25             	cmp    $0x25,%eax
  103d85:	0f 84 c4 02 00 00    	je     10404f <gop_printf+0x3db>
  103d8b:	e9 db 02 00 00       	jmpq   10406b <gop_printf+0x3f7>
  103d90:	83 f8 75             	cmp    $0x75,%eax
  103d93:	0f 84 84 00 00 00    	je     103e1d <gop_printf+0x1a9>
  103d99:	83 f8 78             	cmp    $0x78,%eax
  103d9c:	0f 84 e8 00 00 00    	je     103e8a <gop_printf+0x216>
  103da2:	83 f8 73             	cmp    $0x73,%eax
  103da5:	0f 84 2c 02 00 00    	je     103fd7 <gop_printf+0x363>
  103dab:	e9 bb 02 00 00       	jmpq   10406b <gop_printf+0x3f7>
  103db0:	8b 85 08 ff ff ff    	mov    -0xf8(%rbp),%eax
  103db6:	83 f8 30             	cmp    $0x30,%eax
  103db9:	73 23                	jae    103dde <gop_printf+0x16a>
  103dbb:	48 8b 95 18 ff ff ff 	mov    -0xe8(%rbp),%rdx
  103dc2:	8b 85 08 ff ff ff    	mov    -0xf8(%rbp),%eax
  103dc8:	89 c0                	mov    %eax,%eax
  103dca:	48 01 d0             	add    %rdx,%rax
  103dcd:	8b 95 08 ff ff ff    	mov    -0xf8(%rbp),%edx
  103dd3:	83 c2 08             	add    $0x8,%edx
  103dd6:	89 95 08 ff ff ff    	mov    %edx,-0xf8(%rbp)
  103ddc:	eb 15                	jmp    103df3 <gop_printf+0x17f>
  103dde:	48 8b 95 10 ff ff ff 	mov    -0xf0(%rbp),%rdx
  103de5:	48 89 d0             	mov    %rdx,%rax
  103de8:	48 83 c2 08          	add    $0x8,%rdx
  103dec:	48 89 95 10 ff ff ff 	mov    %rdx,-0xf0(%rbp)
  103df3:	8b 00                	mov    (%rax),%eax
  103df5:	89 85 44 ff ff ff    	mov    %eax,-0xbc(%rbp)
  103dfb:	8b 8d 44 ff ff ff    	mov    -0xbc(%rbp),%ecx
  103e01:	8b 95 f4 fe ff ff    	mov    -0x10c(%rbp),%edx
  103e07:	48 8b 85 f8 fe ff ff 	mov    -0x108(%rbp),%rax
  103e0e:	89 ce                	mov    %ecx,%esi
  103e10:	48 89 c7             	mov    %rax,%rdi
  103e13:	e8 c0 fc ff ff       	callq  103ad8 <gop_print_dec>
  103e18:	e9 89 02 00 00       	jmpq   1040a6 <gop_printf+0x432>
  103e1d:	8b 85 08 ff ff ff    	mov    -0xf8(%rbp),%eax
  103e23:	83 f8 30             	cmp    $0x30,%eax
  103e26:	73 23                	jae    103e4b <gop_printf+0x1d7>
  103e28:	48 8b 95 18 ff ff ff 	mov    -0xe8(%rbp),%rdx
  103e2f:	8b 85 08 ff ff ff    	mov    -0xf8(%rbp),%eax
  103e35:	89 c0                	mov    %eax,%eax
  103e37:	48 01 d0             	add    %rdx,%rax
  103e3a:	8b 95 08 ff ff ff    	mov    -0xf8(%rbp),%edx
  103e40:	83 c2 08             	add    $0x8,%edx
  103e43:	89 95 08 ff ff ff    	mov    %edx,-0xf8(%rbp)
  103e49:	eb 15                	jmp    103e60 <gop_printf+0x1ec>
  103e4b:	48 8b 95 10 ff ff ff 	mov    -0xf0(%rbp),%rdx
  103e52:	48 89 d0             	mov    %rdx,%rax
  103e55:	48 83 c2 08          	add    $0x8,%rdx
  103e59:	48 89 95 10 ff ff ff 	mov    %rdx,-0xf0(%rbp)
  103e60:	8b 00                	mov    (%rax),%eax
  103e62:	89 85 40 ff ff ff    	mov    %eax,-0xc0(%rbp)
  103e68:	8b 95 f4 fe ff ff    	mov    -0x10c(%rbp),%edx
  103e6e:	8b 8d 40 ff ff ff    	mov    -0xc0(%rbp),%ecx
  103e74:	48 8b 85 f8 fe ff ff 	mov    -0x108(%rbp),%rax
  103e7b:	89 ce                	mov    %ecx,%esi
  103e7d:	48 89 c7             	mov    %rax,%rdi
  103e80:	e8 53 fc ff ff       	callq  103ad8 <gop_print_dec>
  103e85:	e9 1c 02 00 00       	jmpq   1040a6 <gop_printf+0x432>
  103e8a:	8b 85 08 ff ff ff    	mov    -0xf8(%rbp),%eax
  103e90:	83 f8 30             	cmp    $0x30,%eax
  103e93:	73 23                	jae    103eb8 <gop_printf+0x244>
  103e95:	48 8b 95 18 ff ff ff 	mov    -0xe8(%rbp),%rdx
  103e9c:	8b 85 08 ff ff ff    	mov    -0xf8(%rbp),%eax
  103ea2:	89 c0                	mov    %eax,%eax
  103ea4:	48 01 d0             	add    %rdx,%rax
  103ea7:	8b 95 08 ff ff ff    	mov    -0xf8(%rbp),%edx
  103ead:	83 c2 08             	add    $0x8,%edx
  103eb0:	89 95 08 ff ff ff    	mov    %edx,-0xf8(%rbp)
  103eb6:	eb 15                	jmp    103ecd <gop_printf+0x259>
  103eb8:	48 8b 95 10 ff ff ff 	mov    -0xf0(%rbp),%rdx
  103ebf:	48 89 d0             	mov    %rdx,%rax
  103ec2:	48 83 c2 08          	add    $0x8,%rdx
  103ec6:	48 89 95 10 ff ff ff 	mov    %rdx,-0xf0(%rbp)
  103ecd:	8b 00                	mov    (%rax),%eax
  103ecf:	89 85 3c ff ff ff    	mov    %eax,-0xc4(%rbp)
  103ed5:	8b 95 f4 fe ff ff    	mov    -0x10c(%rbp),%edx
  103edb:	8b 8d 3c ff ff ff    	mov    -0xc4(%rbp),%ecx
  103ee1:	48 8b 85 f8 fe ff ff 	mov    -0x108(%rbp),%rax
  103ee8:	89 ce                	mov    %ecx,%esi
  103eea:	48 89 c7             	mov    %rax,%rdi
  103eed:	e8 e8 fc ff ff       	callq  103bda <gop_print_hex>
  103ef2:	e9 af 01 00 00       	jmpq   1040a6 <gop_printf+0x432>
  103ef7:	8b 85 08 ff ff ff    	mov    -0xf8(%rbp),%eax
  103efd:	83 f8 30             	cmp    $0x30,%eax
  103f00:	73 23                	jae    103f25 <gop_printf+0x2b1>
  103f02:	48 8b 95 18 ff ff ff 	mov    -0xe8(%rbp),%rdx
  103f09:	8b 85 08 ff ff ff    	mov    -0xf8(%rbp),%eax
  103f0f:	89 c0                	mov    %eax,%eax
  103f11:	48 01 d0             	add    %rdx,%rax
  103f14:	8b 95 08 ff ff ff    	mov    -0xf8(%rbp),%edx
  103f1a:	83 c2 08             	add    $0x8,%edx
  103f1d:	89 95 08 ff ff ff    	mov    %edx,-0xf8(%rbp)
  103f23:	eb 15                	jmp    103f3a <gop_printf+0x2c6>
  103f25:	48 8b 95 10 ff ff ff 	mov    -0xf0(%rbp),%rdx
  103f2c:	48 89 d0             	mov    %rdx,%rax
  103f2f:	48 83 c2 08          	add    $0x8,%rdx
  103f33:	48 89 95 10 ff ff ff 	mov    %rdx,-0xf0(%rbp)
  103f3a:	48 8b 00             	mov    (%rax),%rax
  103f3d:	48 89 85 30 ff ff ff 	mov    %rax,-0xd0(%rbp)
  103f44:	48 8b 85 30 ff ff ff 	mov    -0xd0(%rbp),%rax
  103f4b:	89 c1                	mov    %eax,%ecx
  103f4d:	8b 95 f4 fe ff ff    	mov    -0x10c(%rbp),%edx
  103f53:	48 8b 85 f8 fe ff ff 	mov    -0x108(%rbp),%rax
  103f5a:	89 ce                	mov    %ecx,%esi
  103f5c:	48 89 c7             	mov    %rax,%rdi
  103f5f:	e8 76 fc ff ff       	callq  103bda <gop_print_hex>
  103f64:	e9 3d 01 00 00       	jmpq   1040a6 <gop_printf+0x432>
  103f69:	8b 85 08 ff ff ff    	mov    -0xf8(%rbp),%eax
  103f6f:	83 f8 30             	cmp    $0x30,%eax
  103f72:	73 23                	jae    103f97 <gop_printf+0x323>
  103f74:	48 8b 95 18 ff ff ff 	mov    -0xe8(%rbp),%rdx
  103f7b:	8b 85 08 ff ff ff    	mov    -0xf8(%rbp),%eax
  103f81:	89 c0                	mov    %eax,%eax
  103f83:	48 01 d0             	add    %rdx,%rax
  103f86:	8b 95 08 ff ff ff    	mov    -0xf8(%rbp),%edx
  103f8c:	83 c2 08             	add    $0x8,%edx
  103f8f:	89 95 08 ff ff ff    	mov    %edx,-0xf8(%rbp)
  103f95:	eb 15                	jmp    103fac <gop_printf+0x338>
  103f97:	48 8b 95 10 ff ff ff 	mov    -0xf0(%rbp),%rdx
  103f9e:	48 89 d0             	mov    %rdx,%rax
  103fa1:	48 83 c2 08          	add    $0x8,%rdx
  103fa5:	48 89 95 10 ff ff ff 	mov    %rdx,-0xf0(%rbp)
  103fac:	8b 00                	mov    (%rax),%eax
  103fae:	88 85 2f ff ff ff    	mov    %al,-0xd1(%rbp)
  103fb4:	0f be 8d 2f ff ff ff 	movsbl -0xd1(%rbp),%ecx
  103fbb:	8b 95 f4 fe ff ff    	mov    -0x10c(%rbp),%edx
  103fc1:	48 8b 85 f8 fe ff ff 	mov    -0x108(%rbp),%rax
  103fc8:	89 ce                	mov    %ecx,%esi
  103fca:	48 89 c7             	mov    %rax,%rdi
  103fcd:	e8 9a f9 ff ff       	callq  10396c <gop_put_char>
  103fd2:	e9 cf 00 00 00       	jmpq   1040a6 <gop_printf+0x432>
  103fd7:	8b 85 08 ff ff ff    	mov    -0xf8(%rbp),%eax
  103fdd:	83 f8 30             	cmp    $0x30,%eax
  103fe0:	73 23                	jae    104005 <gop_printf+0x391>
  103fe2:	48 8b 95 18 ff ff ff 	mov    -0xe8(%rbp),%rdx
  103fe9:	8b 85 08 ff ff ff    	mov    -0xf8(%rbp),%eax
  103fef:	89 c0                	mov    %eax,%eax
  103ff1:	48 01 d0             	add    %rdx,%rax
  103ff4:	8b 95 08 ff ff ff    	mov    -0xf8(%rbp),%edx
  103ffa:	83 c2 08             	add    $0x8,%edx
  103ffd:	89 95 08 ff ff ff    	mov    %edx,-0xf8(%rbp)
  104003:	eb 15                	jmp    10401a <gop_printf+0x3a6>
  104005:	48 8b 95 10 ff ff ff 	mov    -0xf0(%rbp),%rdx
  10400c:	48 89 d0             	mov    %rdx,%rax
  10400f:	48 83 c2 08          	add    $0x8,%rdx
  104013:	48 89 95 10 ff ff ff 	mov    %rdx,-0xf0(%rbp)
  10401a:	48 8b 00             	mov    (%rax),%rax
  10401d:	48 89 85 20 ff ff ff 	mov    %rax,-0xe0(%rbp)
  104024:	48 83 bd 20 ff ff ff 	cmpq   $0x0,-0xe0(%rbp)
  10402b:	00 
  10402c:	74 77                	je     1040a5 <gop_printf+0x431>
  10402e:	8b 95 f4 fe ff ff    	mov    -0x10c(%rbp),%edx
  104034:	48 8b 8d 20 ff ff ff 	mov    -0xe0(%rbp),%rcx
  10403b:	48 8b 85 f8 fe ff ff 	mov    -0x108(%rbp),%rax
  104042:	48 89 ce             	mov    %rcx,%rsi
  104045:	48 89 c7             	mov    %rax,%rdi
  104048:	e8 49 fa ff ff       	callq  103a96 <gop_puts>
  10404d:	eb 56                	jmp    1040a5 <gop_printf+0x431>
  10404f:	8b 95 f4 fe ff ff    	mov    -0x10c(%rbp),%edx
  104055:	48 8b 85 f8 fe ff ff 	mov    -0x108(%rbp),%rax
  10405c:	be 25 00 00 00       	mov    $0x25,%esi
  104061:	48 89 c7             	mov    %rax,%rdi
  104064:	e8 03 f9 ff ff       	callq  10396c <gop_put_char>
  104069:	eb 3b                	jmp    1040a6 <gop_printf+0x432>
  10406b:	8b 95 f4 fe ff ff    	mov    -0x10c(%rbp),%edx
  104071:	48 8b 85 f8 fe ff ff 	mov    -0x108(%rbp),%rax
  104078:	be 25 00 00 00       	mov    $0x25,%esi
  10407d:	48 89 c7             	mov    %rax,%rdi
  104080:	e8 e7 f8 ff ff       	callq  10396c <gop_put_char>
  104085:	0f be 8d 4b ff ff ff 	movsbl -0xb5(%rbp),%ecx
  10408c:	8b 95 f4 fe ff ff    	mov    -0x10c(%rbp),%edx
  104092:	48 8b 85 f8 fe ff ff 	mov    -0x108(%rbp),%rax
  104099:	89 ce                	mov    %ecx,%esi
  10409b:	48 89 c7             	mov    %rax,%rdi
  10409e:	e8 c9 f8 ff ff       	callq  10396c <gop_put_char>
  1040a3:	eb 01                	jmp    1040a6 <gop_printf+0x432>
  1040a5:	90                   	nop
  1040a6:	eb 2c                	jmp    1040d4 <gop_printf+0x460>
  1040a8:	8b 85 4c ff ff ff    	mov    -0xb4(%rbp),%eax
  1040ae:	48 98                	cltq   
  1040b0:	48 03 85 e8 fe ff ff 	add    -0x118(%rbp),%rax
  1040b7:	0f b6 00             	movzbl (%rax),%eax
  1040ba:	0f be c8             	movsbl %al,%ecx
  1040bd:	8b 95 f4 fe ff ff    	mov    -0x10c(%rbp),%edx
  1040c3:	48 8b 85 f8 fe ff ff 	mov    -0x108(%rbp),%rax
  1040ca:	89 ce                	mov    %ecx,%esi
  1040cc:	48 89 c7             	mov    %rax,%rdi
  1040cf:	e8 98 f8 ff ff       	callq  10396c <gop_put_char>
  1040d4:	83 85 4c ff ff ff 01 	addl   $0x1,-0xb4(%rbp)
  1040db:	8b 85 4c ff ff ff    	mov    -0xb4(%rbp),%eax
  1040e1:	48 98                	cltq   
  1040e3:	48 03 85 e8 fe ff ff 	add    -0x118(%rbp),%rax
  1040ea:	0f b6 00             	movzbl (%rax),%eax
  1040ed:	84 c0                	test   %al,%al
  1040ef:	0f 85 13 fc ff ff    	jne    103d08 <gop_printf+0x94>
  1040f5:	c9                   	leaveq 
  1040f6:	c3                   	retq   

00000000001040f7 <gop_clear_screen>:
  1040f7:	55                   	push   %rbp
  1040f8:	48 89 e5             	mov    %rsp,%rbp
  1040fb:	48 83 ec 20          	sub    $0x20,%rsp
  1040ff:	48 89 7d e8          	mov    %rdi,-0x18(%rbp)
  104103:	89 75 e4             	mov    %esi,-0x1c(%rbp)
  104106:	c7 45 fc 00 00 00 00 	movl   $0x0,-0x4(%rbp)
  10410d:	eb 32                	jmp    104141 <gop_clear_screen+0x4a>
  10410f:	c7 45 f8 00 00 00 00 	movl   $0x0,-0x8(%rbp)
  104116:	eb 19                	jmp    104131 <gop_clear_screen+0x3a>
  104118:	8b 4d e4             	mov    -0x1c(%rbp),%ecx
  10411b:	8b 55 fc             	mov    -0x4(%rbp),%edx
  10411e:	8b 75 f8             	mov    -0x8(%rbp),%esi
  104121:	48 8b 45 e8          	mov    -0x18(%rbp),%rax
  104125:	48 89 c7             	mov    %rax,%rdi
  104128:	e8 ff f4 ff ff       	callq  10362c <plot_pixel>
  10412d:	83 45 f8 01          	addl   $0x1,-0x8(%rbp)
  104131:	48 8b 45 e8          	mov    -0x18(%rbp),%rax
  104135:	8b 40 10             	mov    0x10(%rax),%eax
  104138:	3b 45 f8             	cmp    -0x8(%rbp),%eax
  10413b:	77 db                	ja     104118 <gop_clear_screen+0x21>
  10413d:	83 45 fc 01          	addl   $0x1,-0x4(%rbp)
  104141:	48 8b 45 e8          	mov    -0x18(%rbp),%rax
  104145:	8b 40 14             	mov    0x14(%rax),%eax
  104148:	3b 45 fc             	cmp    -0x4(%rbp),%eax
  10414b:	77 c2                	ja     10410f <gop_clear_screen+0x18>
  10414d:	c9                   	leaveq 
  10414e:	c3                   	retq   
	...

0000000000104150 <isr_common_stub64>:
  104150:	50                   	push   %rax
  104151:	53                   	push   %rbx
  104152:	51                   	push   %rcx
  104153:	52                   	push   %rdx
  104154:	56                   	push   %rsi
  104155:	57                   	push   %rdi
  104156:	55                   	push   %rbp
  104157:	41 50                	push   %r8
  104159:	41 51                	push   %r9
  10415b:	41 52                	push   %r10
  10415d:	41 53                	push   %r11
  10415f:	41 54                	push   %r12
  104161:	41 55                	push   %r13
  104163:	41 56                	push   %r14
  104165:	41 57                	push   %r15
  104167:	48 8b 7c 24 70       	mov    0x70(%rsp),%rdi
  10416c:	48 8d 74 24 78       	lea    0x78(%rsp),%rsi
  104171:	e8 f6 d0 ff ff       	callq  10126c <isr_handler64>
  104176:	48 83 c4 10          	add    $0x10,%rsp
  10417a:	48 83 ff 20          	cmp    $0x20,%rdi
  10417e:	7c 0c                	jl     10418c <isr_common_stub64.no_eoi>
  104180:	b0 20                	mov    $0x20,%al
  104182:	e6 20                	out    %al,$0x20
  104184:	48 83 ff 28          	cmp    $0x28,%rdi
  104188:	7c 02                	jl     10418c <isr_common_stub64.no_eoi>
  10418a:	e6 a0                	out    %al,$0xa0

000000000010418c <isr_common_stub64.no_eoi>:
  10418c:	41 5f                	pop    %r15
  10418e:	41 5e                	pop    %r14
  104190:	41 5d                	pop    %r13
  104192:	41 5c                	pop    %r12
  104194:	41 5b                	pop    %r11
  104196:	41 5a                	pop    %r10
  104198:	41 59                	pop    %r9
  10419a:	41 58                	pop    %r8
  10419c:	5d                   	pop    %rbp
  10419d:	5f                   	pop    %rdi
  10419e:	5e                   	pop    %rsi
  10419f:	5a                   	pop    %rdx
  1041a0:	59                   	pop    %rcx
  1041a1:	5b                   	pop    %rbx
  1041a2:	58                   	pop    %rax
  1041a3:	fb                   	sti    
  1041a4:	48 cf                	iretq  

00000000001041a6 <isr0>:
  1041a6:	fa                   	cli    
  1041a7:	6a 00                	pushq  $0x0
  1041a9:	6a 00                	pushq  $0x0
  1041ab:	eb a3                	jmp    104150 <isr_common_stub64>

00000000001041ad <isr1>:
  1041ad:	fa                   	cli    
  1041ae:	6a 00                	pushq  $0x0
  1041b0:	6a 01                	pushq  $0x1
  1041b2:	eb 9c                	jmp    104150 <isr_common_stub64>

00000000001041b4 <isr2>:
  1041b4:	fa                   	cli    
  1041b5:	6a 00                	pushq  $0x0
  1041b7:	6a 02                	pushq  $0x2
  1041b9:	eb 95                	jmp    104150 <isr_common_stub64>

00000000001041bb <isr3>:
  1041bb:	fa                   	cli    
  1041bc:	6a 00                	pushq  $0x0
  1041be:	6a 03                	pushq  $0x3
  1041c0:	eb 8e                	jmp    104150 <isr_common_stub64>

00000000001041c2 <isr4>:
  1041c2:	fa                   	cli    
  1041c3:	6a 00                	pushq  $0x0
  1041c5:	6a 04                	pushq  $0x4
  1041c7:	eb 87                	jmp    104150 <isr_common_stub64>

00000000001041c9 <isr5>:
  1041c9:	fa                   	cli    
  1041ca:	6a 00                	pushq  $0x0
  1041cc:	6a 05                	pushq  $0x5
  1041ce:	eb 80                	jmp    104150 <isr_common_stub64>

00000000001041d0 <isr6>:
  1041d0:	fa                   	cli    
  1041d1:	6a 00                	pushq  $0x0
  1041d3:	6a 06                	pushq  $0x6
  1041d5:	e9 76 ff ff ff       	jmpq   104150 <isr_common_stub64>

00000000001041da <isr7>:
  1041da:	fa                   	cli    
  1041db:	6a 00                	pushq  $0x0
  1041dd:	6a 07                	pushq  $0x7
  1041df:	e9 6c ff ff ff       	jmpq   104150 <isr_common_stub64>

00000000001041e4 <isr8>:
  1041e4:	fa                   	cli    
  1041e5:	6a 08                	pushq  $0x8
  1041e7:	e9 64 ff ff ff       	jmpq   104150 <isr_common_stub64>

00000000001041ec <isr9>:
  1041ec:	fa                   	cli    
  1041ed:	6a 00                	pushq  $0x0
  1041ef:	6a 09                	pushq  $0x9
  1041f1:	e9 5a ff ff ff       	jmpq   104150 <isr_common_stub64>

00000000001041f6 <isr10>:
  1041f6:	fa                   	cli    
  1041f7:	6a 0a                	pushq  $0xa
  1041f9:	e9 52 ff ff ff       	jmpq   104150 <isr_common_stub64>

00000000001041fe <isr11>:
  1041fe:	fa                   	cli    
  1041ff:	6a 0b                	pushq  $0xb
  104201:	e9 4a ff ff ff       	jmpq   104150 <isr_common_stub64>

0000000000104206 <isr12>:
  104206:	fa                   	cli    
  104207:	6a 0c                	pushq  $0xc
  104209:	e9 42 ff ff ff       	jmpq   104150 <isr_common_stub64>

000000000010420e <isr13>:
  10420e:	fa                   	cli    
  10420f:	6a 0d                	pushq  $0xd
  104211:	e9 3a ff ff ff       	jmpq   104150 <isr_common_stub64>

0000000000104216 <isr14>:
  104216:	fa                   	cli    
  104217:	6a 0e                	pushq  $0xe
  104219:	e9 32 ff ff ff       	jmpq   104150 <isr_common_stub64>

000000000010421e <isr15>:
  10421e:	fa                   	cli    
  10421f:	6a 00                	pushq  $0x0
  104221:	6a 0f                	pushq  $0xf
  104223:	e9 28 ff ff ff       	jmpq   104150 <isr_common_stub64>

0000000000104228 <isr16>:
  104228:	fa                   	cli    
  104229:	6a 00                	pushq  $0x0
  10422b:	6a 10                	pushq  $0x10
  10422d:	e9 1e ff ff ff       	jmpq   104150 <isr_common_stub64>

0000000000104232 <isr17>:
  104232:	fa                   	cli    
  104233:	6a 11                	pushq  $0x11
  104235:	e9 16 ff ff ff       	jmpq   104150 <isr_common_stub64>

000000000010423a <isr18>:
  10423a:	fa                   	cli    
  10423b:	6a 00                	pushq  $0x0
  10423d:	6a 12                	pushq  $0x12
  10423f:	e9 0c ff ff ff       	jmpq   104150 <isr_common_stub64>

